***********************************************************************
*
*	CODE GENERATION LISTING FOR: M172-TouchScreen
*	COMPILER VERSION: 5.20.0.53
*
***********************************************************************

**************************************************
	CODE GENERATOR SUBROUTINES
**************************************************

$$MOD:
0800C170  FB90 F3F1		sdiv r3, r0, r1
0800C174  4359     		mul r1, r1, r3
0800C176  EBC1 0000		rsb r0, r1, r0
0800C17A  4770     		bx lr

$$MOD_U:
0800C17C  FBB0 F3F1		udiv r3, r0, r1
0800C180  4359     		mul r1, r1, r3
0800C182  EBC1 0000		rsb r0, r1, r0
0800C186  4770     		bx lr

**************************************************
	List function block: DrawBackPage
**************************************************

FUNCTION_BLOCK DrawBackPage

        VAR_INPUT
IsOpening : BOOL;
CurrPageId : UINT;
	END_VAR

        VAR_OUTPUT
BackPageId : UINT;
	END_VAR

        VAR_EXTERNAL
	{G:"Back_buffer"}
$giBackBufferCurr : INT := -1;
$giBackBufferFirst : INT := -1;
$giBackBufferLast : INT := -1;
$guiBackBuffer : ARRAY[0..9] OF UINT;
	END_VAR

END_FUNCTION_BLOCK

0800C188  E92D 4040		stmdb sp!, { r6, lr }
0800C18C  462E     		mov r6, r5

#0		{SRC:DrawBackPage}
#1		(*$WAITSWITCH$*)
#2		
#3		
#4			(* IF IsOpening *)
#5			LD		IsOpening	{LNXT:3|-1|-1}
(-) UNDEF
0800C18E  7830     		ldrb r0, [r6]

#6			JMPCN	$label0	{LNXT:3|8|41}
(-) BOOL
0800C190  2800     		cmp r0, #0
0800C192  F000 80F2		beq #484 ; 0x0800C37A


#7		
#8			(* THEN *)
#9		
#10				(* $giBackBufferCurr := $giBackBufferCurr + 1; *)
#11				LD		$giBackBufferCurr	{LNXT:8|9|-1}
(*) UNDEF
0800C196  F8DF 7254		ldr r7, [pc, #+596] ; 0x2000C816
0800C19A  F9B7 0000		ldrsh r0, [r7]

#12				ADD		1	{LNXT:8|9|-1}
(-) INT
0800C19E  1C40     		add r0, r0, #1

#13				ST		$giBackBufferCurr	{LNXT:8|9|-1}
(*) INT
0800C1A0  F8DF 7248		ldr r7, [pc, #+584] ; 0x2000C816
0800C1A4  8038     		strh r0, [r7]

#14		
#15		
#16				(* IF $giBackBufferCurr >= 10 *)
#17				LD		$giBackBufferCurr	{LNXT:9|-1|-1}
(*) UNDEF
0800C1A6  F8DF 7244		ldr r7, [pc, #+580] ; 0x2000C816
0800C1AA  F9B7 0000		ldrsh r0, [r7]

#18				GE		10	{LNXT:9|-1|-1}
(*) INT
0800C1AE  280A     		cmp r0, #10
0800C1B0  BFB8 2000		ltmov r0, #0
0800C1B4  BFA8 2001		gemov r0, #1

#19				JMPCN	$label2	{LNXT:9|10|12}
(-) BOOL
0800C1B8  2800     		cmp r0, #0
0800C1BA  D004     		beq #8 ; 0x0800C1C6


#20		
#21				(* THEN *)
#22		
#23					(* $giBackBufferCurr := 0; *)
#24					MOVE		0,$giBackBufferCurr	{LNXT:10|12|-1}
(*) BOOL
0800C1BE  2000     		mov r0, #0 ; 0
0800C1C0  F8DF 7228		ldr r7, [pc, #+552] ; 0x2000C816
0800C1C4  8038     		strh r0, [r7]

#25		
#26		$label2:
#27				(* END_IF *)
#28		
#29				(* $guiBackBuffer[ $giBackBufferCurr ] := CurrPageId; *)
#30				MOVE		CurrPageId,$guiBackBuffer[$giBackBufferCurr]	{LNXT:12|13|-1}
(*) INT
0800C1C6  F8DF 7218		ldr r7, [pc, #+536] ; 0x2
0800C1CA  5BF0     		ldrh r0, [r6, +r7]
0800C1CC  F8DF 721C		ldr r7, [pc, #+540] ; 0x2000C816
0800C1D0  F9B7 5000		ldrsh r5, [r7]
0800C1D4  F8DF 7220		ldr r7, [pc, #+544] ; 0x2000C874
0800C1D8  EB07 0745		add r7, r7, r5, lsl #1
0800C1DC  8038     		strh r0, [r7]

#31		
#32		
#33				(* IF $giBackBufferFirst = -1 *)
#34				LD		$giBackBufferFirst	{LNXT:13|-1|-1}
(*) UNDEF
0800C1DE  F8DF 7210		ldr r7, [pc, #+528] ; 0x2000C818
0800C1E2  F9B7 0000		ldrsh r0, [r7]

#35				EQ		-1	{LNXT:13|-1|-1}
(*) INT
0800C1E6  F04F 37FF		mov r7, #4294967295 ; 4294967295
0800C1EA  42B8     		cmp r0, r7
0800C1EC  BF18 2000		nemov r0, #0
0800C1F0  BF08 2001		eqmov r0, #1

#36				JMPCN	$label3	{LNXT:13|14|15}
(-) BOOL
0800C1F4  2800     		cmp r0, #0
0800C1F6  D006     		beq #12 ; 0x0800C206


#37		
#38				(* THEN *)
#39		
#40					(* $giBackBufferFirst := 0; *)
#41					MOVE		0,$giBackBufferFirst	{LNXT:14|23|-1}
(*) BOOL
0800C1FA  2000     		mov r0, #0 ; 0
0800C1FC  F8DF 71F0		ldr r7, [pc, #+496] ; 0x2000C818
0800C200  8038     		strh r0, [r7]

#42					JMP		$label4	{LNXT:13|14|15}
(-) INT
0800C202  E03D     		b #122 ; 0x0800C280


#43		$label3:
#44		
#45				(* ELSIF $giBackBufferCurr = $giBackBufferFirst AND $giBackBufferFirst <> $giBackBufferLast *)
#46				LD		$giBackBufferFirst	{LNXT:15|-1|-1}
(*) UNDEF
0800C206  F8DF 71E8		ldr r7, [pc, #+488] ; 0x2000C818
0800C20A  F9B7 0000		ldrsh r0, [r7]

#47				NE		$giBackBufferLast	{LNXT:15|-1|-1}
(*) INT
0800C20E  F8DF 71E4		ldr r7, [pc, #+484] ; 0x2000C81A
0800C212  F9B7 7000		ldrsh r7, [r7]
0800C216  42B8     		cmp r0, r7
0800C218  BF08 2000		eqmov r0, #0
0800C21C  BF18 2001		nemov r0, #1

#48				AND(		$giBackBufferCurr	{LNXT:15|-1|-1}
(*) BOOL
0800C220  B082     		sub sp, sp, #8
0800C222  F8CD 0000		str r0, [sp]
0800C226  F8DF 71C4		ldr r7, [pc, #+452] ; 0x2000C816
0800C22A  F9B7 0000		ldrsh r0, [r7]

#49				EQ		$giBackBufferFirst	{LNXT:15|-1|-1}
(*) INT
0800C22E  F8DF 71C0		ldr r7, [pc, #+448] ; 0x2000C818
0800C232  F9B7 7000		ldrsh r7, [r7]
0800C236  42B8     		cmp r0, r7
0800C238  BF18 2000		nemov r0, #0
0800C23C  BF08 2001		eqmov r0, #1

#50				)	{LNXT:15|-1|-1}
(*) BOOL
0800C240  4607     		mov r7, r0
0800C242  F8DD 0000		ldr r0, [sp]
0800C246  B002     		add sp, sp, #8
0800C248  4038     		and r0, r0, r7

#51				JMPCN	$label4	{LNXT:15|16|23}
(-) BOOL
0800C24A  2800     		cmp r0, #0
0800C24C  D018     		beq #48 ; 0x0800C280


#52		
#53				(* THEN *)
#54		
#55					(* $giBackBufferFirst := $giBackBufferFirst + 1; *)
#56					LD		$giBackBufferFirst	{LNXT:16|17|-1}
(*) UNDEF
0800C250  F8DF 719C		ldr r7, [pc, #+412] ; 0x2000C818
0800C254  F9B7 0000		ldrsh r0, [r7]

#57					ADD		1	{LNXT:16|17|-1}
(-) INT
0800C258  1C40     		add r0, r0, #1

#58					ST		$giBackBufferFirst	{LNXT:16|17|-1}
(*) INT
0800C25A  F8DF 7194		ldr r7, [pc, #+404] ; 0x2000C818
0800C25E  8038     		strh r0, [r7]

#59		
#60		
#61					(* IF $giBackBufferFirst = 10 *)
#62					LD		$giBackBufferFirst	{LNXT:17|-1|-1}
(*) UNDEF
0800C260  F8DF 718C		ldr r7, [pc, #+396] ; 0x2000C818
0800C264  F9B7 0000		ldrsh r0, [r7]

#63					EQ		10	{LNXT:17|-1|-1}
(*) INT
0800C268  280A     		cmp r0, #10
0800C26A  BF18 2000		nemov r0, #0
0800C26E  BF08 2001		eqmov r0, #1

#64					JMPCN	$label5	{LNXT:17|18|23}
(-) BOOL
0800C272  2800     		cmp r0, #0
0800C274  D004     		beq #8 ; 0x0800C280


#65		
#66					(* THEN *)
#67		
#68						(* $giBackBufferFirst := 0; *)
#69						MOVE		0,$giBackBufferFirst	{LNXT:18|23|-1}
(*) BOOL
0800C278  2000     		mov r0, #0 ; 0
0800C27A  F8DF 7174		ldr r7, [pc, #+372] ; 0x2000C818
0800C27E  8038     		strh r0, [r7]

#70		
#71		$label5:
#72					(* END_IF *)
#73		
#74		$label4:
#75				(* END_IF *)
#76		
#77		
#78				(* IF $giBackBufferCurr = $giBackBufferFirst *)
#79				LD		$giBackBufferCurr	{LNXT:23|-1|-1}
(*) UNDEF
0800C280  F8DF 7168		ldr r7, [pc, #+360] ; 0x2000C816
0800C284  F9B7 0000		ldrsh r0, [r7]

#80				EQ		$giBackBufferFirst	{LNXT:23|-1|-1}
(*) INT
0800C288  F8DF 7164		ldr r7, [pc, #+356] ; 0x2000C818
0800C28C  F9B7 7000		ldrsh r7, [r7]
0800C290  42B8     		cmp r0, r7
0800C292  BF18 2000		nemov r0, #0
0800C296  BF08 2001		eqmov r0, #1

#81				JMPCN	$label6	{LNXT:23|24|25}
(-) BOOL
0800C29A  2800     		cmp r0, #0
0800C29C  D007     		beq #14 ; 0x0800C2AE


#82		
#83				(* THEN *)
#84		
#85					(* $giBackBufferLast := -1; *)
#86					MOVE		-1,$giBackBufferLast	{LNXT:24|32|-1}
(*) BOOL
0800C2A0  F04F 30FF		mov r0, #4294967295 ; 4294967295
0800C2A4  F8DF 714C		ldr r7, [pc, #+332] ; 0x2000C81A
0800C2A8  8038     		strh r0, [r7]

#87					JMP		$label9	{LNXT:23|24|25}
(-) INT
0800C2AA  E042     		b #132 ; 0x0800C332


#88		$label6:
#89		
#90				(* ELSIF $giBackBufferCurr = 0 AND $giBackBufferFirst <> 9 *)
#91				LD		$giBackBufferFirst	{LNXT:25|-1|-1}
(*) UNDEF
0800C2AE  F8DF 7140		ldr r7, [pc, #+320] ; 0x2000C818
0800C2B2  F9B7 0000		ldrsh r0, [r7]

#92				NE		9	{LNXT:25|-1|-1}
(*) INT
0800C2B6  2809     		cmp r0, #9
0800C2B8  BF08 2000		eqmov r0, #0
0800C2BC  BF18 2001		nemov r0, #1

#93				AND(		$giBackBufferCurr	{LNXT:25|-1|-1}
(*) BOOL
0800C2C0  B082     		sub sp, sp, #8
0800C2C2  F8CD 0000		str r0, [sp]
0800C2C6  F8DF 7124		ldr r7, [pc, #+292] ; 0x2000C816
0800C2CA  F9B7 0000		ldrsh r0, [r7]

#94				EQ		0	{LNXT:25|-1|-1}
(*) INT
0800C2CE  2800     		cmp r0, #0
0800C2D0  BF18 2000		nemov r0, #0
0800C2D4  BF08 2001		eqmov r0, #1

#95				)	{LNXT:25|-1|-1}
(*) BOOL
0800C2D8  4607     		mov r7, r0
0800C2DA  F8DD 0000		ldr r0, [sp]
0800C2DE  B002     		add sp, sp, #8
0800C2E0  4038     		and r0, r0, r7

#96				JMPCN	$label7	{LNXT:25|26|27}
(-) BOOL
0800C2E2  2800     		cmp r0, #0
0800C2E4  D006     		beq #12 ; 0x0800C2F4


#97		
#98				(* THEN *)
#99		
#100					(* $giBackBufferLast := 9; *)
#101					MOVE		9,$giBackBufferLast	{LNXT:26|32|-1}
(*) BOOL
0800C2E8  2009     		mov r0, #9 ; 9
0800C2EA  F8DF 7108		ldr r7, [pc, #+264] ; 0x2000C81A
0800C2EE  8038     		strh r0, [r7]

#102					JMP		$label9	{LNXT:25|26|27}
(-) INT
0800C2F0  E01F     		b #62 ; 0x0800C332


#103		$label7:
#104		
#105				(* ELSIF $giBackBufferCurr <> $giBackBufferFirst *)
#106				LD		$giBackBufferCurr	{LNXT:27|-1|-1}
(*) UNDEF
0800C2F4  F8DF 70F4		ldr r7, [pc, #+244] ; 0x2000C816
0800C2F8  F9B7 0000		ldrsh r0, [r7]

#107				NE		$giBackBufferFirst	{LNXT:27|-1|-1}
(*) INT
0800C2FC  F8DF 70F0		ldr r7, [pc, #+240] ; 0x2000C818
0800C300  F9B7 7000		ldrsh r7, [r7]
0800C304  42B8     		cmp r0, r7
0800C306  BF08 2000		eqmov r0, #0
0800C30A  BF18 2001		nemov r0, #1

#108				JMPCN	$label8	{LNXT:27|28|30}
(-) BOOL
0800C30E  2800     		cmp r0, #0
0800C310  D00A     		beq #20 ; 0x0800C328


#109		
#110				(* THEN *)
#111		
#112					(* $giBackBufferLast := $giBackBufferCurr - 1; *)
#113					LD		$giBackBufferCurr	{LNXT:28|32|-1}
(*) UNDEF
0800C314  F8DF 70D4		ldr r7, [pc, #+212] ; 0x2000C816
0800C318  F9B7 0000		ldrsh r0, [r7]

#114					SUB		1	{LNXT:28|32|-1}
(-) INT
0800C31C  1E40     		sub r0, r0, #1

#115					ST		$giBackBufferLast	{LNXT:28|32|-1}
(*) INT
0800C31E  F8DF 70D4		ldr r7, [pc, #+212] ; 0x2000C81A
0800C322  8038     		strh r0, [r7]

#116					JMP		$label9	{LNXT:27|28|30}
(-) INT
0800C324  E005     		b #10 ; 0x0800C332


#117		$label8:
#118		
#119				(* ELSE *)
#120		
#121					(* $giBackBufferLast := -1; *)
#122					MOVE		-1,$giBackBufferLast	{LNXT:30|32|-1}
(*) INT
0800C328  F04F 30FF		mov r0, #4294967295 ; 4294967295
0800C32C  F8DF 70C4		ldr r7, [pc, #+196] ; 0x2000C81A
0800C330  8038     		strh r0, [r7]

#123		
#124		$label9:
#125				(* END_IF *)
#126		
#127		
#128				(* IF $giBackBufferLast <> -1 *)
#129				LD		$giBackBufferLast	{LNXT:32|-1|-1}
(*) UNDEF
0800C332  F8DF 70C0		ldr r7, [pc, #+192] ; 0x2000C81A
0800C336  F9B7 0000		ldrsh r0, [r7]

#130				NE		-1	{LNXT:32|-1|-1}
(*) INT
0800C33A  F04F 37FF		mov r7, #4294967295 ; 4294967295
0800C33E  42B8     		cmp r0, r7
0800C340  BF08 2000		eqmov r0, #0
0800C344  BF18 2001		nemov r0, #1

#131				JMPCN	$label10	{LNXT:32|33|35}
(-) BOOL
0800C348  2800     		cmp r0, #0
0800C34A  D00E     		beq #28 ; 0x0800C36A


#132		
#133				(* THEN *)
#134		
#135					(* BackPageId := $guiBackBuffer[$giBackBufferLast]; *)
#136					MOVE		$guiBackBuffer[$giBackBufferLast],BackPageId	{LNXT:33|-1|-1}
(*) BOOL
0800C34E  F8DF 70A4		ldr r7, [pc, #+164] ; 0x2000C81A
0800C352  F9B7 5000		ldrsh r5, [r7]
0800C356  F8DF 70A0		ldr r7, [pc, #+160] ; 0x2000C874
0800C35A  EB07 0745		add r7, r7, r5, lsl #1
0800C35E  8838     		ldrh r0, [r7]
0800C360  F8DF 7080		ldr r7, [pc, #+128] ; 0x4
0800C364  53F0     		strh r0, [r6, +r7]

#137					JMP		$label11	{LNXT:32|33|35}
(-) UINT
0800C366  E006     		b #12 ; 0x0800C376


#138		$label10:
#139		
#140				(* ELSE *)
#141		
#142					(* BackPageId := 16#FFFF; *)
#143					MOVE		16#FFFF,BackPageId	{LNXT:35|-1|-1}
(*) UINT
0800C36A  F8DF 707C		ldr r7, [pc, #+124] ; 0xFFFF
0800C36E  4638     		mov r0, r7
0800C370  F8DF 7070		ldr r7, [pc, #+112] ; 0x4
0800C374  53F0     		strh r0, [r6, +r7]

#144		
#145		$label11:
#146				(* END_IF *)
#147				JMP		$label1	{LNXT:3|8|41}
(-) UINT
0800C376  E030     		b #96 ; 0x0800C3DA


#148		$label0:
#149		
#150			(* ELSE *)
#151		
#152				(* $giBackBufferCurr := $giBackBufferCurr - 1; *)
#153				LD		$giBackBufferCurr	{LNXT:41|42|-1}
(*) UNDEF
0800C37A  F8DF 7070		ldr r7, [pc, #+112] ; 0x2000C816
0800C37E  F9B7 0000		ldrsh r0, [r7]

#154				SUB		1	{LNXT:41|42|-1}
(-) INT
0800C382  1E40     		sub r0, r0, #1

#155				ST		$giBackBufferCurr	{LNXT:41|42|-1}
(*) INT
0800C384  F8DF 7064		ldr r7, [pc, #+100] ; 0x2000C816
0800C388  8038     		strh r0, [r7]

#156		
#157		
#158				(* IF $giBackBufferCurr < 0 *)
#159				LD		$giBackBufferCurr	{LNXT:42|-1|-1}
(*) UNDEF
0800C38A  F8DF 7060		ldr r7, [pc, #+96] ; 0x2000C816
0800C38E  F9B7 0000		ldrsh r0, [r7]

#160				LT		0	{LNXT:42|-1|-1}
(*) INT
0800C392  2800     		cmp r0, #0
0800C394  BFA8 2000		gemov r0, #0
0800C398  BFB8 2001		ltmov r0, #1

#161				JMPCN	$label12	{LNXT:42|43|45}
(-) BOOL
0800C39C  2800     		cmp r0, #0
0800C39E  D004     		beq #8 ; 0x0800C3AA


#162		
#163				(* THEN *)
#164		
#165					(* $giBackBufferCurr := 9; *)
#166					MOVE		9,$giBackBufferCurr	{LNXT:43|45|-1}
(*) BOOL
0800C3A2  2009     		mov r0, #9 ; 9
0800C3A4  F8DF 7044		ldr r7, [pc, #+68] ; 0x2000C816
0800C3A8  8038     		strh r0, [r7]

#167		
#168		$label12:
#169				(* END_IF *)
#170		
#171				(* $giBackBufferCurr := $giBackBufferCurr - 1; *)
#172				LD		$giBackBufferCurr	{LNXT:45|46|-1}
(*) UNDEF
0800C3AA  F8DF 7040		ldr r7, [pc, #+64] ; 0x2000C816
0800C3AE  F9B7 0000		ldrsh r0, [r7]

#173				SUB		1	{LNXT:45|46|-1}
(-) INT
0800C3B2  1E40     		sub r0, r0, #1

#174				ST		$giBackBufferCurr	{LNXT:45|46|-1}
(*) INT
0800C3B4  F8DF 7034		ldr r7, [pc, #+52] ; 0x2000C816
0800C3B8  8038     		strh r0, [r7]

#175		
#176		
#177				(* IF $giBackBufferCurr < 0 *)
#178				LD		$giBackBufferCurr	{LNXT:46|-1|-1}
(*) UNDEF
0800C3BA  F8DF 7030		ldr r7, [pc, #+48] ; 0x2000C816
0800C3BE  F9B7 0000		ldrsh r0, [r7]

#179				LT		0	{LNXT:46|-1|-1}
(*) INT
0800C3C2  2800     		cmp r0, #0
0800C3C4  BFA8 2000		gemov r0, #0
0800C3C8  BFB8 2001		ltmov r0, #1

#180				JMPCN	$label13	{LNXT:46|47|-1}
(-) BOOL
0800C3CC  2800     		cmp r0, #0
0800C3CE  D004     		beq #8 ; 0x0800C3DA


#181		
#182				(* THEN *)
#183		
#184					(* $giBackBufferCurr := 9; *)
#185					MOVE		9,$giBackBufferCurr	{LNXT:47|-1|-1}
(*) BOOL
0800C3D2  2009     		mov r0, #9 ; 9
0800C3D4  F8DF 7014		ldr r7, [pc, #+20] ; 0x2000C816
0800C3D8  8038     		strh r0, [r7]

0800C3DA  E8BD 4040		ldmia sp!, { r6, lr }

0800C3DE  4770     		bx lr

0800C3E0  00000002		; 0x00000002
0800C3E4  00000004		; 0x00000004
0800C3E8  0000FFFF		; 0x0000FFFF
0800C3EC  2000C816		; 0x2000C816
0800C3F0  2000C818		; 0x2000C818
0800C3F4  2000C81A		; 0x2000C81A
0800C3F8  2000C874		; 0x2000C874


Frame allocation:

	0000 bit  0: VAR IsOpening
	0002       : VAR CurrPageId
	0004       : VAR BackPageId

END_FUNCTION_BLOCK
**************************************************
	List function block: RefrTouchScreen
**************************************************

FUNCTION_BLOCK RefrTouchScreen

        VAR_EXTERNAL
	{G:"Call_stack"}
guiCallStack : ARRAY[0..9] OF UINT;
giStackPtr : INT := -1;
	{G:"TouchScreen_vars"}
fbTouchScreenString_7 : Static02 := (x:=7, y:=8, pFont:=?DroidSansMono_12x24, bckCol:=16777215, pString:=?kStr00001, pVisVar:=1, format:=16#0020, bordPts:=0, selForeCol:=16777215, pRefrVar:=0, pSelVar:=0, numChars:=0);
fbTouchScreenLine_9 : Line01 := (x1:=7, y1:=40, x2:=230, y2:=40, bordPts:=1);
fbTouchScreenString_14 : Static02 := (wHnd:=1, x:=7, y:=51, pFont:=?DroidSansMono_12x24, bckCol:=16777215, pString:=?kStr00002, pVisVar:=1, format:=16#0020, bordPts:=0, selForeCol:=16777215, pRefrVar:=0, pSelVar:=0, numChars:=0);
fbTouchScreenLine_16 : Line01 := (x1:=8, y1:=85, x2:=231, y2:=85, bordPts:=1);
fbTouchScreenEdit_1 : EditBox03 := (wHnd:=2, x1:=174, y1:=8, x2:=221, y2:=31, pFont:=?DroidSansMono_12x24, bckCol:=16777215, rw:=TRUE, pVar:=16#00201000, order:=1, pVisVar:=1, foreSelCol:=16777215, refr:=TRUE, type:=tyInt, format:=16#0100000C, pEnumId:=0);
fbTouchScreenEdit_15 : EditBox03 := (wHnd:=3, x1:=174, y1:=51, x2:=221, y2:=74, pFont:=?DroidSansMono_12x24, bckCol:=16777215, rw:=TRUE, pVar:=16#00201100, order:=6, pVisVar:=1, foreSelCol:=16777215, refr:=TRUE, type:=tyInt, format:=16#0100000C, pEnumId:=0);
fbTouchScreenEdit_18 : EditBox03 := (wHnd:=4, x1:=33, y1:=107, x2:=200, y2:=130, pFont:=?DroidSansMono_12x24, bckCol:=16777215, rw:=TRUE, pVar:=16#00201200, order:=7, pVisVar:=1, foreSelCol:=16777215, refr:=TRUE, type:=tyInt, format:=16#00000014, pEnumId:=1);
fbTouchScreenEdit_19 : EditBox03 := (wHnd:=5, x1:=34, y1:=141, x2:=201, y2:=164, pFont:=?DroidSansMono_12x24, bckCol:=16777215, rw:=TRUE, pVar:=16#00201200, order:=8, pVisVar:=1, foreSelCol:=16777215, refr:=TRUE, type:=tyInt, format:=16#00000014, pEnumId:=2);
	{G:"Sets"}
$waitRefresh : BOOL;
	END_VAR

        VAR
res : USINT;
pagID : UINT;
n : USINT;
iSP : INT;
pDC : UDINT;
rx1 : UINT;
ry1 : UINT;
rx2 : UINT;
ry2 : UINT;
	END_VAR

END_FUNCTION_BLOCK

0800C3FC  E92D 4040		stmdb sp!, { r6, lr }
0800C400  462E     		mov r6, r5

#0		{SRC:RefrTouchScreen}
#1		(*$WAITSWITCH$*)
#2		
#3			(* REPEAT *)
#4		$label0:
#5		
#6				(* res := Video_Lock( res ); *)
#7				LDP0		res	{LNXT:6|9|-1}
(-) UNDEF
#8				Video_Lock	{LNXT:6|9|-1}
(*) UNDEF
0800C402  7830     		ldrb r0, [r6]
0800C404  F8DF 40A0		ldr r4, [pc, #+160] ; 0x80C82C5
0800C408  F044 0401		orr r4, r4, #1
0800C40C  47A0     		blx r4

#9				ST		res	{LNXT:6|9|-1}
(-) USINT
0800C40E  7030     		strb r0, [r6]

#10		
#11				(* pagID := guiCallStack[ giStackPtr ]; *)
#12				MOVE		guiCallStack[giStackPtr],pagID	{LNXT:9|11|-1}
(*) USINT
0800C410  F8DF 70A0		ldr r7, [pc, #+160] ; 0x2000C814
0800C414  F9B7 5000		ldrsh r5, [r7]
0800C418  F8DF 709C		ldr r7, [pc, #+156] ; 0x2000C820
0800C41C  EB07 0745		add r7, r7, r5, lsl #1
0800C420  8838     		ldrh r0, [r7]
0800C422  F8DF 7078		ldr r7, [pc, #+120] ; 0x2
0800C426  53F0     		strh r0, [r6, +r7]

#13		
#14		
#15				(* IF pagID = 16#00 *)
#16				LD		pagID	{LNXT:11|-1|-1}
(*) UNDEF
0800C428  F8DF 7070		ldr r7, [pc, #+112] ; 0x2
0800C42C  5BF0     		ldrh r0, [r6, +r7]

#17				EQ		16#00	{LNXT:11|-1|-1}
(*) UINT
0800C42E  2800     		cmp r0, #0
0800C430  BF18 2000		nemov r0, #0
0800C434  BF08 2001		eqmov r0, #1

#18				JMPCN	$label2	{LNXT:11|14|32}
(-) BOOL
0800C438  2800     		cmp r0, #0
0800C43A  D012     		beq #36 ; 0x0800C462


#19		
#20				(* THEN *)
#21		
#22					(* $waitRefresh := FALSE; *)
#23					MOVE		FALSE,$waitRefresh	{LNXT:14|19|-1}
(*) BOOL
0800C43E  2000     		mov r0, #0 ; 0
0800C440  F8DF 7078		ldr r7, [pc, #+120] ; 0x2000C888
0800C444  7038     		strb r0, [r7]

#24		
#25					(* res := Video_UpdatePageControls( TRUE ); *)
#26					LDP0		TRUE	{LNXT:19|24|-1}
(-) BOOL
#27					Video_UpdatePageControls	{LNXT:19|24|-1}
(*) BOOL
0800C446  2001     		mov r0, #1 ; 1
0800C448  F8DF 4058		ldr r4, [pc, #+88] ; 0x80C0921
0800C44C  F044 0401		orr r4, r4, #1
0800C450  47A0     		blx r4

#28					ST		res	{LNXT:19|24|-1}
(-) BOOL
0800C452  7030     		strb r0, [r6]

#29		
#30					(* iSP := giStackPtr; *)
#31					MOVE		giStackPtr,iSP	{LNXT:24|32|-1}
(*) USINT
0800C454  F8DF 705C		ldr r7, [pc, #+92] ; 0x2000C814
0800C458  F9B7 0000		ldrsh r0, [r7]
0800C45C  F8DF 7040		ldr r7, [pc, #+64] ; 0x6
0800C460  53F0     		strh r0, [r6, +r7]

#32		
#33		$label2:
#34				(* END_IF *)
#35		
#36				(* res := Video_Unlock( res ); *)
#37				LDP0		res	{LNXT:32|35|-1}
(-) INT
#38				Video_Unlock	{LNXT:32|35|-1}
(*) INT
0800C462  7830     		ldrb r0, [r6]
0800C464  F8DF 4044		ldr r4, [pc, #+68] ; 0x80C82D5
0800C468  F044 0401		orr r4, r4, #1
0800C46C  47A0     		blx r4

#39				ST		res	{LNXT:32|35|-1}
(-) USINT
0800C46E  7030     		strb r0, [r6]

#40		
#41				(* res := Video_Sleep( 50 ); *)
#42				LDP0		50	{LNXT:35|37|-1}
(-) USINT
#43				Video_Sleep	{LNXT:35|37|-1}
(*) USINT
0800C470  2732     		mov r7, #50 ; 50
0800C472  4638     		mov r0, r7
0800C474  F8DF 4038		ldr r4, [pc, #+56] ; 0x80C82E9
0800C478  F044 0401		orr r4, r4, #1
0800C47C  47A0     		blx r4

#44				ST		res	{LNXT:35|37|-1}
(-) USINT
0800C47E  7030     		strb r0, [r6]

#45		
#46			(* UNTIL pagID <> 16#00 *)
#47		
#48			(*  *)
#49			LD		pagID	{LNXT:37|-1|-1}
(*) UNDEF
0800C480  F8DF 7018		ldr r7, [pc, #+24] ; 0x2
0800C484  5BF0     		ldrh r0, [r6, +r7]

#50			NE		16#00	{LNXT:37|-1|-1}
(*) UINT
0800C486  2800     		cmp r0, #0
0800C488  BF08 2000		eqmov r0, #0
0800C48C  BF18 2001		nemov r0, #1

#51				JMPCN	$label0	{LNXT:37|6|-1}
(-) BOOL
0800C490  2800     		cmp r0, #0
0800C492  D0B6     		beq #-148 ; 0x0800C402

0800C494  E8BD 4040		ldmia sp!, { r6, lr }

0800C498  4770     		bx lr

0800C49C  00000002		; 0x00000002
0800C4A0  00000006		; 0x00000006
0800C4A4  080C0921		; 0x080C0921
0800C4A8  080C82C5		; 0x080C82C5
0800C4AC  080C82D5		; 0x080C82D5
0800C4B0  080C82E9		; 0x080C82E9
0800C4B4  2000C814		; 0x2000C814
0800C4B8  2000C820		; 0x2000C820
0800C4BC  2000C888		; 0x2000C888


Frame allocation:

	0000       : VAR res
	0002       : VAR pagID
	0004       : VAR n
	0006       : VAR iSP
	0008       : VAR pDC
	000C       : VAR rx1
	000E       : VAR ry1
	0010       : VAR rx2
	0012       : VAR ry2

END_FUNCTION_BLOCK
**************************************************
	List function block: DrawTouchScreen
**************************************************

FUNCTION_BLOCK DrawTouchScreen

        VAR_OUTPUT
uiOutVar : UINT;
	END_VAR

        VAR_EXTERNAL
	{G:"Call_stack"}
guiCallStack : ARRAY[0..9] OF UINT;
giStackPtr : INT := -1;
	{G:"Back_page_manager"}
fbBackPage : DrawBackPage;
	{G:"TouchScreen_vars"}
fbTouchScreenString_7 : Static02 := (x:=7, y:=8, pFont:=?DroidSansMono_12x24, bckCol:=16777215, pString:=?kStr00001, pVisVar:=1, format:=16#0020, bordPts:=0, selForeCol:=16777215, pRefrVar:=0, pSelVar:=0, numChars:=0);
fbTouchScreenLine_9 : Line01 := (x1:=7, y1:=40, x2:=230, y2:=40, bordPts:=1);
fbTouchScreenString_14 : Static02 := (wHnd:=1, x:=7, y:=51, pFont:=?DroidSansMono_12x24, bckCol:=16777215, pString:=?kStr00002, pVisVar:=1, format:=16#0020, bordPts:=0, selForeCol:=16777215, pRefrVar:=0, pSelVar:=0, numChars:=0);
fbTouchScreenLine_16 : Line01 := (x1:=8, y1:=85, x2:=231, y2:=85, bordPts:=1);
fbTouchScreenEdit_1 : EditBox03 := (wHnd:=2, x1:=174, y1:=8, x2:=221, y2:=31, pFont:=?DroidSansMono_12x24, bckCol:=16777215, rw:=TRUE, pVar:=16#00201000, order:=1, pVisVar:=1, foreSelCol:=16777215, refr:=TRUE, type:=tyInt, format:=16#0100000C, pEnumId:=0);
fbTouchScreenEdit_15 : EditBox03 := (wHnd:=3, x1:=174, y1:=51, x2:=221, y2:=74, pFont:=?DroidSansMono_12x24, bckCol:=16777215, rw:=TRUE, pVar:=16#00201100, order:=6, pVisVar:=1, foreSelCol:=16777215, refr:=TRUE, type:=tyInt, format:=16#0100000C, pEnumId:=0);
fbTouchScreenEdit_18 : EditBox03 := (wHnd:=4, x1:=33, y1:=107, x2:=200, y2:=130, pFont:=?DroidSansMono_12x24, bckCol:=16777215, rw:=TRUE, pVar:=16#00201200, order:=7, pVisVar:=1, foreSelCol:=16777215, refr:=TRUE, type:=tyInt, format:=16#00000014, pEnumId:=1);
fbTouchScreenEdit_19 : EditBox03 := (wHnd:=5, x1:=34, y1:=141, x2:=201, y2:=164, pFont:=?DroidSansMono_12x24, bckCol:=16777215, rw:=TRUE, pVar:=16#00201200, order:=8, pVisVar:=1, foreSelCol:=16777215, refr:=TRUE, type:=tyInt, format:=16#00000014, pEnumId:=2);
	{G:"Sets"}
$waitRefresh : BOOL;
	END_VAR

        VAR
res : USINT;
bStatRedrw : BOOL;
bMapsReset : BOOL;
iNextSel : INT;
$Set_IndexVisEl : UINT;
$Set_CycleRefresh : UINT;
$Set_PtrBoolVis : @BOOL;
$Set_VisEl : BOOL;
$Set_IndexPageInSet : UINT;
$Set_ForcePageReload : BOOL;
$Set_NextPage : BOOL;
$Set_PrevPage : BOOL;
$Set_LocalSetPagNumber : UINT;
$Set_NumVisEl : UINT;
$Set_LastFirstEl : INT;
udiev : UDINT;
ev : UINT;
key : USINT;
x1 : UINT;
y1 : UINT;
x2 : UINT;
y2 : UINT;
wParam : UINT;
	END_VAR

END_FUNCTION_BLOCK

0800C4C0  E92D 4040		stmdb sp!, { r6, lr }
0800C4C4  462E     		mov r6, r5

#0		{SRC:DrawTouchScreen}
#1		(*$WAITSWITCH$*)
#2		
#3			(* guiCallStack[ giStackPtr ] := 16#00; *)
#4			MOVE		16#00,guiCallStack[giStackPtr]	{LNXT:4|7|-1}
(*) UNDEF
0800C4C6  2000     		mov r0, #0 ; 0
0800C4C8  F8DF 738C		ldr r7, [pc, #+908] ; 0x2000C814
0800C4CC  F9B7 5000		ldrsh r5, [r7]
0800C4D0  F8DF 7388		ldr r7, [pc, #+904] ; 0x2000C820
0800C4D4  EB07 0745		add r7, r7, r5, lsl #1
0800C4D8  8038     		strh r0, [r7]

#5		
#6			(* fbBackPage.IsOpening := TRUE; *)
#7			MOVE		TRUE,fbBackPage.IsOpening	{LNXT:7|8|-1}
(*) UINT
0800C4DA  2001     		mov r0, #1 ; 1
0800C4DC  F8DF 7380		ldr r7, [pc, #+896] ; 0x2000C86C
0800C4E0  7038     		strb r0, [r7]

#8		
#9			(* fbBackPage.CurrPageId := 16#00; *)
#10			MOVE		16#00,fbBackPage.CurrPageId	{LNXT:8|9|-1}
(*) BOOL
0800C4E2  2000     		mov r0, #0 ; 0
0800C4E4  F8DF 737C		ldr r7, [pc, #+892] ; 0x2000C86E
0800C4E8  8038     		strh r0, [r7]

#11		
#12			(* fbBackPage *)
#13			CAL		fbBackPage	{LNXT:9|13|-1}
(*) UINT
0800C4EA  E92D 0021		stmdb sp!, { r0, r5 }
0800C4EE  F8DF 7370		ldr r7, [pc, #+880] ; 0x2000C86C
0800C4F2  463D     		mov r5, r7
0800C4F4  F8DF 4330		ldr r4, [pc, #+816] ; 0x800C188
0800C4F8  F044 0401		orr r4, r4, #1
0800C4FC  47A0     		blx r4
0800C4FE  E8BD 0021		ldmia sp!, { r0, r5 }

#14		
#15			(* $waitRefresh := TRUE; *)
#16			MOVE		TRUE,$waitRefresh	{LNXT:13|16|-1}
(*) UINT
0800C502  2001     		mov r0, #1 ; 1
0800C504  F8DF 7360		ldr r7, [pc, #+864] ; 0x2000C888
0800C508  7038     		strb r0, [r7]

#17		
#18			(* res := Video_ResetMaps( 16#00 ); *)
#19			LDP0		16#00	{LNXT:16|19|-1}
(-) BOOL
#20			Video_ResetMaps	{LNXT:16|19|-1}
(*) BOOL
0800C50A  2000     		mov r0, #0 ; 0
0800C50C  F8DF 4338		ldr r4, [pc, #+824] ; 0x80C82F7
0800C510  F044 0401		orr r4, r4, #1
0800C514  47A0     		blx r4

#21			ST		res	{LNXT:16|19|-1}
(-) USINT
0800C516  7030     		strb r0, [r6]

#22		
#23			(* bStatRedrw := TRUE; *)
#24			MOVE		TRUE,bStatRedrw	{LNXT:19|20|-1}
(*) USINT
0800C518  2001     		mov r0, #1 ; 1
0800C51A  F8DF 72D8		ldr r7, [pc, #+728] ; 0x1
0800C51E  55F0     		strb r0, [r6, +r7]

#25		
#26			(* bMapsReset := TRUE; *)
#27			MOVE		TRUE,bMapsReset	{LNXT:20|23|-1}
(*) BOOL
0800C520  2001     		mov r0, #1 ; 1
0800C522  F8DF 72D4		ldr r7, [pc, #+724] ; 0x2
0800C526  55F0     		strb r0, [r6, +r7]

#28		
#29			(* x1:= 0; *)
#30			MOVE		0,x1	{LNXT:23|24|-1}
(*) BOOL
0800C528  2000     		mov r0, #0 ; 0
0800C52A  F8DF 72DC		ldr r7, [pc, #+732] ; 0x28
0800C52E  53F0     		strh r0, [r6, +r7]

#31		
#32			(* y1:= 0; *)
#33			MOVE		0,y1	{LNXT:24|25|-1}
(*) UINT
0800C530  2000     		mov r0, #0 ; 0
0800C532  F8DF 72D8		ldr r7, [pc, #+728] ; 0x2A
0800C536  53F0     		strh r0, [r6, +r7]

#34		
#35			(* x2:= 239; *)
#36			MOVE		239,x2	{LNXT:25|26|-1}
(*) UINT
0800C538  20EF     		mov r0, #239 ; 239
0800C53A  F8DF 72D4		ldr r7, [pc, #+724] ; 0x2C
0800C53E  53F0     		strh r0, [r6, +r7]

#37		
#38			(* y2:= 319; *)
#39			MOVE		319,y2	{LNXT:26|29|-1}
(*) UINT
0800C540  F8DF 72D8		ldr r7, [pc, #+728] ; 0x13F
0800C544  4638     		mov r0, r7
0800C546  F8DF 72CC		ldr r7, [pc, #+716] ; 0x2E
0800C54A  53F0     		strh r0, [r6, +r7]

#40		
#41			(* res := Video_Unlock( res ); *)
#42			LDP0		res	{LNXT:29|31|-1}
(-) UINT
#43			Video_Unlock	{LNXT:29|31|-1}
(*) UINT
0800C54C  7830     		ldrb r0, [r6]
0800C54E  F8DF 42F0		ldr r4, [pc, #+752] ; 0x80C82D5
0800C552  F044 0401		orr r4, r4, #1
0800C556  47A0     		blx r4

#44			ST		res	{LNXT:29|31|-1}
(-) USINT
0800C558  7030     		strb r0, [r6]

#45		
#46			(* WHILE TRUE *)
#47		$label0:
#48			LD		TRUE	{LNXT:31|-1|-1}
(-) UNDEF
0800C55A  2001     		mov r0, #1 ; 1

#49			JMPCN		$label1	{LNXT:31|34|-1}
(-) BOOL
0800C55C  2800     		cmp r0, #0
0800C55E  F000 8145		beq #650 ; 0x0800C7EC


#50		
#51			(* DO *)
#52				(* res := Video_Lock( res ); *)
#53				LDP0		res	{LNXT:34|37|-1}
(-) BOOL
#54				Video_Lock	{LNXT:34|37|-1}
(*) BOOL
0800C562  7830     		ldrb r0, [r6]
0800C564  F8DF 42D4		ldr r4, [pc, #+724] ; 0x80C82C5
0800C568  F044 0401		orr r4, r4, #1
0800C56C  47A0     		blx r4

#55				ST		res	{LNXT:34|37|-1}
(-) USINT
0800C56E  7030     		strb r0, [r6]

#56		
#57				(* res := Video_InitPage( 0, 0, 239, 319, ?' ', 16#0003 ); *)
#58				ADR		' '	{LNXT:37|40|-1}
(*) USINT
0800C570  F8DF 02B0		ldr r0, [pc, #+688] ; 0x800C160

#59				ST		$$TMP0	{LNXT:37|40|-1}
(*) @STRING
0800C574  F8DF 72A0		ldr r7, [pc, #+672] ; 0x34
0800C578  51F0     		str r0, [r6, +r7]

#60				LDP0		0	{LNXT:37|40|-1}
(-) @STRING
#61				Video_InitPage		0, 239, 319, $$TMP0, 16#0003	{LNXT:37|40|-1}
(*) @STRING
0800C57A  B082     		sub sp, sp, #8
0800C57C  2700     		mov r7, #0 ; 0
0800C57E  4638     		mov r0, r7
0800C580  2700     		mov r7, #0 ; 0
0800C582  4639     		mov r1, r7
0800C584  27EF     		mov r7, #239 ; 239
0800C586  463A     		mov r2, r7
0800C588  F8DF 7290		ldr r7, [pc, #+656] ; 0x13F
0800C58C  463B     		mov r3, r7
0800C58E  F8DF 7288		ldr r7, [pc, #+648] ; 0x34
0800C592  59F7     		ldr r7, [r6, +r7]
0800C594  F8CD 7000		str r7, [sp]
0800C598  2703     		mov r7, #3 ; 3
0800C59A  F8CD 7004		str r7, [sp, #+4]
0800C59E  F8DF 428C		ldr r4, [pc, #+652] ; 0x80C5C1D
0800C5A2  F044 0401		orr r4, r4, #1
0800C5A6  47A0     		blx r4
0800C5A8  B002     		add sp, sp, #8

#62				ST		res	{LNXT:37|40|-1}
(-) USINT
0800C5AA  7030     		strb r0, [r6]

#63		
#64				(* res := Video_SetPageColors( 0, 16777215 ); *)
#65				LDP0		0	{LNXT:40|42|-1}
(-) USINT
#66				Video_SetPageColors		16777215	{LNXT:40|42|-1}
(*) USINT
0800C5AC  2700     		mov r7, #0 ; 0
0800C5AE  4638     		mov r0, r7
0800C5B0  F8DF 726C		ldr r7, [pc, #+620] ; 0xFFFFFF
0800C5B4  4639     		mov r1, r7
0800C5B6  F8DF 427C		ldr r4, [pc, #+636] ; 0x80C6521
0800C5BA  F044 0401		orr r4, r4, #1
0800C5BE  47A0     		blx r4

#67				ST		res	{LNXT:40|42|-1}
(-) USINT
0800C5C0  7030     		strb r0, [r6]

#68		
#69		
#70				(* IF bStatRedrw *)
#71				LD		bStatRedrw	{LNXT:42|-1|-1}
(*) UNDEF
0800C5C2  F8DF 7230		ldr r7, [pc, #+560] ; 0x1
0800C5C6  5DF0     		ldrb r0, [r6, +r7]

#72				JMPCN	$label2	{LNXT:42|45|49}
(-) BOOL
0800C5C8  2800     		cmp r0, #0
0800C5CA  D012     		beq #36 ; 0x0800C5F2


#73		
#74				(* THEN *)
#75		
#76					(* res := Video_ClrRect( x1, y1, x2, y2 ); *)
#77					LDP0		x1	{LNXT:45|49|-1}
(-) BOOL
#78					Video_ClrRect		y1, x2, y2	{LNXT:45|49|-1}
(*) BOOL
0800C5CE  F8DF 7238		ldr r7, [pc, #+568] ; 0x28
0800C5D2  5BF0     		ldrh r0, [r6, +r7]
0800C5D4  F8DF 7234		ldr r7, [pc, #+564] ; 0x2A
0800C5D8  5BF1     		ldrh r1, [r6, +r7]
0800C5DA  F8DF 7234		ldr r7, [pc, #+564] ; 0x2C
0800C5DE  5BF2     		ldrh r2, [r6, +r7]
0800C5E0  F8DF 7230		ldr r7, [pc, #+560] ; 0x2E
0800C5E4  5BF3     		ldrh r3, [r6, +r7]
0800C5E6  F8DF 4248		ldr r4, [pc, #+584] ; 0x80C6483
0800C5EA  F044 0401		orr r4, r4, #1
0800C5EE  47A0     		blx r4

#79					ST		res	{LNXT:45|49|-1}
(-) USINT
0800C5F0  7030     		strb r0, [r6]

#80		
#81		$label2:
#82				(* END_IF *)
#83		
#84		
#85				(* IF bMapsReset *)
#86				LD		bMapsReset	{LNXT:49|-1|-1}
(*) UNDEF
0800C5F2  F8DF 7204		ldr r7, [pc, #+516] ; 0x2
0800C5F6  5DF0     		ldrb r0, [r6, +r7]

#87				JMPCN	$label3	{LNXT:49|52|87}
(-) BOOL
0800C5F8  2800     		cmp r0, #0
0800C5FA  F000 80A7		beq #334 ; 0x0800C74C


#88		
#89				(* THEN *)
#90		
#91					(* res := Video_ResetMaps( 16#FF ); *)
#92					LDP0		16#FF	{LNXT:52|59|-1}
(-) BOOL
#93					Video_ResetMaps	{LNXT:52|59|-1}
(*) BOOL
0800C5FE  20FF     		mov r0, #255 ; 255
0800C600  F8DF 4244		ldr r4, [pc, #+580] ; 0x80C82F7
0800C604  F044 0401		orr r4, r4, #1
0800C608  47A0     		blx r4

#94					ST		res	{LNXT:52|59|-1}
(-) USINT
0800C60A  7030     		strb r0, [r6]

#95		
#96					(* fbTouchScreenEdit_1.accMode := kACS_INIT; *)
#97					MOVE		kACS_INIT,fbTouchScreenEdit_1.accMode	{LNXT:59|60|-1}
(*) USINT
0800C60C  2001     		mov r0, #1 ; 1
0800C60E  F8DF 7260		ldr r7, [pc, #+608] ; 0x2000C8E9
0800C612  7038     		strb r0, [r7]

#98		
#99					(* fbTouchScreenEdit_1 *)
#100					CAL		fbTouchScreenEdit_1	{LNXT:60|61|-1}
(*) USINT
0800C614  E92D 0021		stmdb sp!, { r0, r5 }
0800C618  F8DF 7250		ldr r7, [pc, #+592] ; 0x2000C88C
0800C61C  4638     		mov r0, r7
0800C61E  F8DF 422C		ldr r4, [pc, #+556] ; 0x80CA081
0800C622  F044 0401		orr r4, r4, #1
0800C626  47A0     		blx r4
0800C628  E8BD 0021		ldmia sp!, { r0, r5 }

#101		
#102					(* fbTouchScreenEdit_1.accMode := kACS_PRINT; *)
#103					MOVE		kACS_PRINT,fbTouchScreenEdit_1.accMode	{LNXT:61|62|-1}
(*) USINT
0800C62C  2002     		mov r0, #2 ; 2
0800C62E  F8DF 7240		ldr r7, [pc, #+576] ; 0x2000C8E9
0800C632  7038     		strb r0, [r7]

#104		
#105					(* fbTouchScreenString_7.accMode := kACS_INIT; *)
#106					MOVE		kACS_INIT,fbTouchScreenString_7.accMode	{LNXT:62|63|-1}
(*) USINT
0800C634  2001     		mov r0, #1 ; 1
0800C636  F8DF 7240		ldr r7, [pc, #+576] ; 0x2000C906
0800C63A  7038     		strb r0, [r7]

#107		
#108					(* fbTouchScreenString_7 *)
#109					CAL		fbTouchScreenString_7	{LNXT:63|64|-1}
(*) USINT
0800C63C  E92D 0021		stmdb sp!, { r0, r5 }
0800C640  F8DF 7230		ldr r7, [pc, #+560] ; 0x2000C8F8
0800C644  4638     		mov r0, r7
0800C646  F8DF 420C		ldr r4, [pc, #+524] ; 0x80CC80B
0800C64A  F044 0401		orr r4, r4, #1
0800C64E  47A0     		blx r4
0800C650  E8BD 0021		ldmia sp!, { r0, r5 }

#110		
#111					(* fbTouchScreenString_7.accMode := kACS_PRINT; *)
#112					MOVE		kACS_PRINT,fbTouchScreenString_7.accMode	{LNXT:64|65|-1}
(*) USINT
0800C654  2002     		mov r0, #2 ; 2
0800C656  F8DF 7220		ldr r7, [pc, #+544] ; 0x2000C906
0800C65A  7038     		strb r0, [r7]

#113		
#114					(* fbTouchScreenLine_9.accMode := kACS_INIT; *)
#115					MOVE		kACS_INIT,fbTouchScreenLine_9.accMode	{LNXT:65|66|-1}
(*) USINT
0800C65C  2001     		mov r0, #1 ; 1
0800C65E  F8DF 7220		ldr r7, [pc, #+544] ; 0x2000C940
0800C662  7038     		strb r0, [r7]

#116		
#117					(* fbTouchScreenLine_9 *)
#118					CAL		fbTouchScreenLine_9	{LNXT:66|67|-1}
(*) USINT
0800C664  E92D 0021		stmdb sp!, { r0, r5 }
0800C668  F8DF 7210		ldr r7, [pc, #+528] ; 0x2000C938
0800C66C  4638     		mov r0, r7
0800C66E  F8DF 41E0		ldr r4, [pc, #+480] ; 0x80CC1DF
0800C672  F044 0401		orr r4, r4, #1
0800C676  47A0     		blx r4
0800C678  E8BD 0021		ldmia sp!, { r0, r5 }

#119		
#120					(* fbTouchScreenLine_9.accMode := kACS_PRINT; *)
#121					MOVE		kACS_PRINT,fbTouchScreenLine_9.accMode	{LNXT:67|68|-1}
(*) USINT
0800C67C  2002     		mov r0, #2 ; 2
0800C67E  F8DF 7200		ldr r7, [pc, #+512] ; 0x2000C940
0800C682  7038     		strb r0, [r7]

#122		
#123					(* fbTouchScreenString_14.accMode := kACS_INIT; *)
#124					MOVE		kACS_INIT,fbTouchScreenString_14.accMode	{LNXT:68|69|-1}
(*) USINT
0800C684  2001     		mov r0, #1 ; 1
0800C686  F8DF 7200		ldr r7, [pc, #+512] ; 0x2000C956
0800C68A  7038     		strb r0, [r7]

#125		
#126					(* fbTouchScreenString_14 *)
#127					CAL		fbTouchScreenString_14	{LNXT:69|70|-1}
(*) USINT
0800C68C  E92D 0021		stmdb sp!, { r0, r5 }
0800C690  F8DF 71F0		ldr r7, [pc, #+496] ; 0x2000C948
0800C694  4638     		mov r0, r7
0800C696  F8DF 41BC		ldr r4, [pc, #+444] ; 0x80CC80B
0800C69A  F044 0401		orr r4, r4, #1
0800C69E  47A0     		blx r4
0800C6A0  E8BD 0021		ldmia sp!, { r0, r5 }

#128		
#129					(* fbTouchScreenString_14.accMode := kACS_PRINT; *)
#130					MOVE		kACS_PRINT,fbTouchScreenString_14.accMode	{LNXT:70|71|-1}
(*) USINT
0800C6A4  2002     		mov r0, #2 ; 2
0800C6A6  F8DF 71E0		ldr r7, [pc, #+480] ; 0x2000C956
0800C6AA  7038     		strb r0, [r7]

#131		
#132					(* fbTouchScreenEdit_15.accMode := kACS_INIT; *)
#133					MOVE		kACS_INIT,fbTouchScreenEdit_15.accMode	{LNXT:71|72|-1}
(*) USINT
0800C6AC  2001     		mov r0, #1 ; 1
0800C6AE  F8DF 71E0		ldr r7, [pc, #+480] ; 0x2000C9E5
0800C6B2  7038     		strb r0, [r7]

#134		
#135					(* fbTouchScreenEdit_15 *)
#136					CAL		fbTouchScreenEdit_15	{LNXT:72|73|-1}
(*) USINT
0800C6B4  E92D 0021		stmdb sp!, { r0, r5 }
0800C6B8  F8DF 71D0		ldr r7, [pc, #+464] ; 0x2000C988
0800C6BC  4638     		mov r0, r7
0800C6BE  F8DF 418C		ldr r4, [pc, #+396] ; 0x80CA081
0800C6C2  F044 0401		orr r4, r4, #1
0800C6C6  47A0     		blx r4
0800C6C8  E8BD 0021		ldmia sp!, { r0, r5 }

#137		
#138					(* fbTouchScreenEdit_15.accMode := kACS_PRINT; *)
#139					MOVE		kACS_PRINT,fbTouchScreenEdit_15.accMode	{LNXT:73|74|-1}
(*) USINT
0800C6CC  2002     		mov r0, #2 ; 2
0800C6CE  F8DF 71C0		ldr r7, [pc, #+448] ; 0x2000C9E5
0800C6D2  7038     		strb r0, [r7]

#140		
#141					(* fbTouchScreenLine_16.accMode := kACS_INIT; *)
#142					MOVE		kACS_INIT,fbTouchScreenLine_16.accMode	{LNXT:74|75|-1}
(*) USINT
0800C6D4  2001     		mov r0, #1 ; 1
0800C6D6  F8DF 71C0		ldr r7, [pc, #+448] ; 0x2000C9FC
0800C6DA  7038     		strb r0, [r7]

#143		
#144					(* fbTouchScreenLine_16 *)
#145					CAL		fbTouchScreenLine_16	{LNXT:75|76|-1}
(*) USINT
0800C6DC  E92D 0021		stmdb sp!, { r0, r5 }
0800C6E0  F8DF 71B0		ldr r7, [pc, #+432] ; 0x2000C9F4
0800C6E4  4638     		mov r0, r7
0800C6E6  F8DF 4168		ldr r4, [pc, #+360] ; 0x80CC1DF
0800C6EA  F044 0401		orr r4, r4, #1
0800C6EE  47A0     		blx r4
0800C6F0  E8BD 0021		ldmia sp!, { r0, r5 }

#146		
#147					(* fbTouchScreenLine_16.accMode := kACS_PRINT; *)
#148					MOVE		kACS_PRINT,fbTouchScreenLine_16.accMode	{LNXT:76|77|-1}
(*) USINT
0800C6F4  2002     		mov r0, #2 ; 2
0800C6F6  F8DF 71A0		ldr r7, [pc, #+416] ; 0x2000C9FC
0800C6FA  7038     		strb r0, [r7]

#149		
#150					(* fbTouchScreenEdit_18.accMode := kACS_INIT; *)
#151					MOVE		kACS_INIT,fbTouchScreenEdit_18.accMode	{LNXT:77|78|-1}
(*) USINT
0800C6FC  2001     		mov r0, #1 ; 1
0800C6FE  F8DF 71A0		ldr r7, [pc, #+416] ; 0x2000CA61
0800C702  7038     		strb r0, [r7]

#152		
#153					(* fbTouchScreenEdit_18 *)
#154					CAL		fbTouchScreenEdit_18	{LNXT:78|79|-1}
(*) USINT
0800C704  E92D 0021		stmdb sp!, { r0, r5 }
0800C708  F8DF 7190		ldr r7, [pc, #+400] ; 0x2000CA04
0800C70C  4638     		mov r0, r7
0800C70E  F8DF 413C		ldr r4, [pc, #+316] ; 0x80CA081
0800C712  F044 0401		orr r4, r4, #1
0800C716  47A0     		blx r4
0800C718  E8BD 0021		ldmia sp!, { r0, r5 }

#155		
#156					(* fbTouchScreenEdit_18.accMode := kACS_PRINT; *)
#157					MOVE		kACS_PRINT,fbTouchScreenEdit_18.accMode	{LNXT:79|80|-1}
(*) USINT
0800C71C  2002     		mov r0, #2 ; 2
0800C71E  F8DF 7180		ldr r7, [pc, #+384] ; 0x2000CA61
0800C722  7038     		strb r0, [r7]

#158		
#159					(* fbTouchScreenEdit_19.accMode := kACS_INIT; *)
#160					MOVE		kACS_INIT,fbTouchScreenEdit_19.accMode	{LNXT:80|81|-1}
(*) USINT
0800C724  2001     		mov r0, #1 ; 1
0800C726  F8DF 7180		ldr r7, [pc, #+384] ; 0x2000CACD
0800C72A  7038     		strb r0, [r7]

#161		
#162					(* fbTouchScreenEdit_19 *)
#163					CAL		fbTouchScreenEdit_19	{LNXT:81|82|-1}
(*) USINT
0800C72C  E92D 0021		stmdb sp!, { r0, r5 }
0800C730  F8DF 7170		ldr r7, [pc, #+368] ; 0x2000CA70
0800C734  4638     		mov r0, r7
0800C736  F8DF 4114		ldr r4, [pc, #+276] ; 0x80CA081
0800C73A  F044 0401		orr r4, r4, #1
0800C73E  47A0     		blx r4
0800C740  E8BD 0021		ldmia sp!, { r0, r5 }

#164		
#165					(* fbTouchScreenEdit_19.accMode := kACS_PRINT; *)
#166					MOVE		kACS_PRINT,fbTouchScreenEdit_19.accMode	{LNXT:82|87|-1}
(*) USINT
0800C744  2002     		mov r0, #2 ; 2
0800C746  F8DF 7160		ldr r7, [pc, #+352] ; 0x2000CACD
0800C74A  7038     		strb r0, [r7]

#167		
#168		$label3:
#169				(* END_IF *)
#170		
#171				(* res := Video_Unlock( res ); *)
#172				LDP0		res	{LNXT:87|90|-1}
(-) USINT
#173				Video_Unlock	{LNXT:87|90|-1}
(*) USINT
0800C74C  7830     		ldrb r0, [r6]
0800C74E  F8DF 40F0		ldr r4, [pc, #+240] ; 0x80C82D5
0800C752  F044 0401		orr r4, r4, #1
0800C756  47A0     		blx r4

#174				ST		res	{LNXT:87|90|-1}
(-) USINT
0800C758  7030     		strb r0, [r6]

#175		
#176				(* bStatRedrw := FALSE; *)
#177				MOVE		FALSE,bStatRedrw	{LNXT:90|91|-1}
(*) USINT
0800C75A  2000     		mov r0, #0 ; 0
0800C75C  F8DF 7094		ldr r7, [pc, #+148] ; 0x1
0800C760  55F0     		strb r0, [r6, +r7]

#178		
#179				(* bMapsReset := FALSE; *)
#180				MOVE		FALSE,bMapsReset	{LNXT:91|94|-1}
(*) BOOL
0800C762  2000     		mov r0, #0 ; 0
0800C764  F8DF 7090		ldr r7, [pc, #+144] ; 0x2
0800C768  55F0     		strb r0, [r6, +r7]

#181		
#182				(* WHILE bStatRedrw *)
#183		$label4:
#184				LD		bStatRedrw	{LNXT:94|-1|-1}
(*) UNDEF
0800C76A  F8DF 7088		ldr r7, [pc, #+136] ; 0x1
0800C76E  5DF0     		ldrb r0, [r6, +r7]

#185				NOT	{LNXT:94|-1|-1}
(*) BOOL
0800C770  2800     		cmp r0, #0
0800C772  BF08 2001		eqmov r0, #1
0800C776  BF18 2000		nemov r0, #0

#186				JMPCN		$label5	{LNXT:94|97|31}
(-) BOOL
0800C77A  2800     		cmp r0, #0
0800C77C  D035     		beq #106 ; 0x0800C7EA


#187		
#188				(* DO *)
#189		
#190					(* IF $waitRefresh *)
#191					LD		$waitRefresh	{LNXT:97|-1|-1}
(*) UNDEF
0800C780  F8DF 70E4		ldr r7, [pc, #+228] ; 0x2000C888
0800C784  7838     		ldrb r0, [r7]

#192					JMPCN	$label6	{LNXT:97|98|102}
(-) BOOL
0800C786  2800     		cmp r0, #0
0800C788  D00A     		beq #20 ; 0x0800C7A0


#193		
#194					(* THEN *)
#195		
#196						(* res := Video_Sleep( 50 ); *)
#197						LDP0		50	{LNXT:98|94|-1}
(-) BOOL
#198						Video_Sleep	{LNXT:98|94|-1}
(*) BOOL
0800C78C  2732     		mov r7, #50 ; 50
0800C78E  4638     		mov r0, r7
0800C790  F8DF 40B0		ldr r4, [pc, #+176] ; 0x80C82E9
0800C794  F044 0401		orr r4, r4, #1
0800C798  47A0     		blx r4

#199						ST		res	{LNXT:98|94|-1}
(-) USINT
0800C79A  7030     		strb r0, [r6]

#200						JMP		$label7	{LNXT:97|98|102}
(-) USINT
0800C79C  E024     		b #72 ; 0x0800C7E8


#201		$label6:
#202		
#203					(* ELSE *)
#204		
#205						(* udiev := Video_GetEvent( res ); *)
#206						LDP0		res	{LNXT:102|104|-1}
(-) USINT
#207						Video_GetEvent	{LNXT:102|104|-1}
(*) USINT
0800C7A0  7830     		ldrb r0, [r6]
0800C7A2  F8DF 4094		ldr r4, [pc, #+148] ; 0x80C73B9
0800C7A6  F044 0401		orr r4, r4, #1
0800C7AA  47A0     		blx r4

#208						ST		udiev	{LNXT:102|104|-1}
(*) UDINT
0800C7AC  F8DF 704C		ldr r7, [pc, #+76] ; 0x20
0800C7B0  51F0     		str r0, [r6, +r7]

#209		
#210						(* ev := TO_UINT(udiev); *)
#211						LDP0		udiev	{LNXT:104|107|-1}
(-) UDINT
#212						TO_UINT	{LNXT:104|107|-1}
(*) UDINT
0800C7B2  F8DF 7048		ldr r7, [pc, #+72] ; 0x20
0800C7B6  59F0     		ldr r0, [r6, +r7]

#213						ST		ev	{LNXT:104|107|-1}
(*) UINT
0800C7B8  F8DF 7044		ldr r7, [pc, #+68] ; 0x24
0800C7BC  53F0     		strh r0, [r6, +r7]

#214		
#215		
#216						(* CASE ev OF *)
#217		
#218						(* kWM_KEY: *)
#219						LD		ev	{LNXT:109|-1|-1}
(*) UNDEF
0800C7BE  F8DF 7040		ldr r7, [pc, #+64] ; 0x24
0800C7C2  5BF0     		ldrh r0, [r6, +r7]

#220						EQ		kWM_KEY	{LNXT:109|-1|-1}
(*) UINT
0800C7C4  2701     		mov r7, #1 ; 1
0800C7C6  42B8     		cmp r0, r7
0800C7C8  BF18 2000		nemov r0, #0
0800C7CC  BF08 2001		eqmov r0, #1

#221						JMPC		$label9	{LNXT:109|111|94}
(-) BOOL
0800C7D0  2800     		cmp r0, #0
0800C7D2  D102     		bne #4 ; 0x0800C7DA


#222						JMP		$label8	{LNXT:109|111|94}
(-) BOOL
0800C7D6  E007     		b #14 ; 0x0800C7E8


#223		
#224						(* Istruzioni di ciascun CASE: *)
#225		
#226		$label9:
#227							(* key := TO_USINT(SHR(udiev, 16)); *)
#228							LDP0		udiev	{LNXT:111|94|-1}
(-) BOOL
#229							SHR		16	{LNXT:111|94|-1}
(*) BOOL
0800C7DA  F8DF 7020		ldr r7, [pc, #+32] ; 0x20
0800C7DE  59F0     		ldr r0, [r6, +r7]
0800C7E0  0C00     		lsr r0, r0, #16

#230							TO_USINT	{LNXT:111|94|-1}
(-) UDINT
#231							ST		key	{LNXT:111|94|-1}
(*) USINT
0800C7E2  F8DF 7020		ldr r7, [pc, #+32] ; 0x26
0800C7E6  55F0     		strb r0, [r6, +r7]

#232		
#233		$label8:
#234		
#235						(* END_CASE *)
#236		
#237		$label7:
#238					(* END_IF *)
#239					JMP		$label4	{LNXT:94|97|31}
(-) USINT
0800C7E8  E7BF     		b #-130 ; 0x0800C76A

#240		
#241		$label5:
#242				(* END_WHILE *)
#243				JMP		$label0	{LNXT:31|34|-1}
(-) USINT
0800C7EA  E6B6     		b #-660 ; 0x0800C55A

0800C7EC  E8BD 4040		ldmia sp!, { r6, lr }

0800C7F0  4770     		bx lr

0800C7F4  00000001		; 0x00000001
0800C7F8  00000002		; 0x00000002
0800C7FC  00000020		; 0x00000020
0800C800  00000024		; 0x00000024
0800C804  00000026		; 0x00000026
0800C808  00000028		; 0x00000028
0800C80C  0000002A		; 0x0000002A
0800C810  0000002C		; 0x0000002C
0800C814  0000002E		; 0x0000002E
0800C818  00000034		; 0x00000034
0800C81C  0000013F		; 0x0000013F
0800C820  00FFFFFF		; 0x00FFFFFF
0800C824  0800C160		; 0x0800C160
0800C828  0800C188		; 0x0800C188
0800C82C  080C5C1D		; 0x080C5C1D
0800C830  080C6483		; 0x080C6483
0800C834  080C6521		; 0x080C6521
0800C838  080C73B9		; 0x080C73B9
0800C83C  080C82C5		; 0x080C82C5
0800C840  080C82D5		; 0x080C82D5
0800C844  080C82E9		; 0x080C82E9
0800C848  080C82F7		; 0x080C82F7
0800C84C  080CA081		; 0x080CA081
0800C850  080CC1DF		; 0x080CC1DF
0800C854  080CC80B		; 0x080CC80B
0800C858  2000C814		; 0x2000C814
0800C85C  2000C820		; 0x2000C820
0800C860  2000C86C		; 0x2000C86C
0800C864  2000C86E		; 0x2000C86E
0800C868  2000C888		; 0x2000C888
0800C86C  2000C88C		; 0x2000C88C
0800C870  2000C8E9		; 0x2000C8E9
0800C874  2000C8F8		; 0x2000C8F8
0800C878  2000C906		; 0x2000C906
0800C87C  2000C938		; 0x2000C938
0800C880  2000C940		; 0x2000C940
0800C884  2000C948		; 0x2000C948
0800C888  2000C956		; 0x2000C956
0800C88C  2000C988		; 0x2000C988
0800C890  2000C9E5		; 0x2000C9E5
0800C894  2000C9F4		; 0x2000C9F4
0800C898  2000C9FC		; 0x2000C9FC
0800C89C  2000CA04		; 0x2000CA04
0800C8A0  2000CA61		; 0x2000CA61
0800C8A4  2000CA70		; 0x2000CA70
0800C8A8  2000CACD		; 0x2000CACD


Frame allocation:

	0000       : VAR res
	0001 bit  0: VAR bStatRedrw
	0002 bit  0: VAR bMapsReset
	0004       : VAR iNextSel
	0006       : VAR $Set_IndexVisEl
	0008       : VAR $Set_CycleRefresh
	000C       : VAR $Set_PtrBoolVis
	0010 bit  0: VAR $Set_VisEl
	0012       : VAR $Set_IndexPageInSet
	0014 bit  0: VAR $Set_ForcePageReload
	0015 bit  0: VAR $Set_NextPage
	0016 bit  0: VAR $Set_PrevPage
	0018       : VAR $Set_LocalSetPagNumber
	001A       : VAR $Set_NumVisEl
	001C       : VAR $Set_LastFirstEl
	0020       : VAR udiev
	0024       : VAR ev
	0026       : VAR key
	0028       : VAR x1
	002A       : VAR y1
	002C       : VAR x2
	002E       : VAR y2
	0030       : VAR wParam
	0032       : VAR uiOutVar

END_FUNCTION_BLOCK
**************************************************
	List program: main
**************************************************

PROGRAM main

END_PROGRAM

0800C8B0  B082     		sub sp, sp, #8
0800C8B2  F8CD E000		str lr, [sp]
0800C8B6  E92D 0FF0		stmdb sp!, { r4, r5, r6, r7, r8, r9, r10, r11 }

#0		{SRC:main}
#1		(*$WAITSWITCH$*)
#2		
#3			(* cnt := cnt + 1; *)
#4			LD		cnt	{LNXT:2|2|-1}
(*) UNDEF
0800C8BA  F8DF 701C		ldr r7, [pc, #+28] ; 0x2000C812
0800C8BE  F9B7 0000		ldrsh r0, [r7]

#5			ADD		1	{LNXT:2|2|-1}
(-) INT
0800C8C2  1C40     		add r0, r0, #1

#6			ST		cnt	{LNXT:2|2|-1}
(*) INT
0800C8C4  F8DF 7010		ldr r7, [pc, #+16] ; 0x2000C812
0800C8C8  8038     		strh r0, [r7]

0800C8CA  E8BD 0FF0		ldmia sp!, { r4, r5, r6, r7, r8, r9, r10, r11 }
0800C8CE  F8DD E000		ldr lr, [sp]
0800C8D2  B002     		add sp, sp, #8

0800C8D4  4770     		bx lr

0800C8D8  2000C812		; 0x2000C812

END_PROGRAM


**************************************************
	Target variable image generation
**************************************************


*** INPUT:
0800C8DC  4770     		bx lr


*** OUTPUT:
0800C8DE  4770     		bx lr



**************************************************
	Task Background init code
**************************************************

0800C8E0  B082     		sub sp, sp, #8
0800C8E2  F8CD E000		str lr, [sp]
0800C8E6  E92D 0FF0		stmdb sp!, { r4, r5, r6, r7, r8, r9, r10, r11 }

0800C8EA  E8BD 0FF0		ldmia sp!, { r4, r5, r6, r7, r8, r9, r10, r11 }
0800C8EE  F8DD E000		ldr lr, [sp]
0800C8F2  B002     		add sp, sp, #8

0800C8F4  4770     		bx lr

**************************************************
	List program: PageDraw
**************************************************

PROGRAM PageDraw

        VAR
res : USINT;
	END_VAR

END_PROGRAM

0800C900  B082     		sub sp, sp, #8
0800C902  F8CD E000		str lr, [sp]
0800C906  E92D 0FF0		stmdb sp!, { r4, r5, r6, r7, r8, r9, r10, r11 }

#0		{SRC:PageDraw}
#1		(*$WAITSWITCH$*)
#2		
#3			(* res := Video_Lock( res ); *)
#4			LDP0		res	{LNXT:3|6|-1}
(-) UDINT
#5			Video_Lock	{LNXT:3|6|-1}
(*) UDINT
0800C90A  F8DF 7284		ldr r7, [pc, #+644] ; 0x2000C811
0800C90E  7838     		ldrb r0, [r7]
0800C910  F8DF 4268		ldr r4, [pc, #+616] ; 0x80C82C5
0800C914  F044 0401		orr r4, r4, #1
0800C918  47A0     		blx r4

#6			ST		res	{LNXT:3|6|-1}
(*) USINT
0800C91A  F8DF 7274		ldr r7, [pc, #+628] ; 0x2000C811
0800C91E  7038     		strb r0, [r7]

#7		
#8			(* res := Video_SetUseBitmapsColorDepth( TRUE ); *)
#9			LDP0		TRUE	{LNXT:6|9|-1}
(-) USINT
#10			Video_SetUseBitmapsColorDepth	{LNXT:6|9|-1}
(*) USINT
0800C920  2001     		mov r0, #1 ; 1
0800C922  F8DF 4260		ldr r4, [pc, #+608] ; 0x80C95AD
0800C926  F044 0401		orr r4, r4, #1
0800C92A  47A0     		blx r4

#11			ST		res	{LNXT:6|9|-1}
(*) BOOL
0800C92C  F8DF 7260		ldr r7, [pc, #+608] ; 0x2000C811
0800C930  7038     		strb r0, [r7]

#12		
#13			(* res := Video_InitHMI_ZOrder( TRUE ); *)
#14			LDP0		TRUE	{LNXT:9|12|-1}
(-) USINT
#15			Video_InitHMI_ZOrder	{LNXT:9|12|-1}
(*) USINT
0800C932  2001     		mov r0, #1 ; 1
0800C934  F8DF 4234		ldr r4, [pc, #+564] ; 0x80C4B01
0800C938  F044 0401		orr r4, r4, #1
0800C93C  47A0     		blx r4

#16			ST		res	{LNXT:9|12|-1}
(*) BOOL
0800C93E  F8DF 7250		ldr r7, [pc, #+592] ; 0x2000C811
0800C942  7038     		strb r0, [r7]

#17		
#18			(* res := Video_Switch( TRUE ); *)
#19			LDP0		TRUE	{LNXT:12|15|-1}
(-) USINT
#20			Video_Switch	{LNXT:12|15|-1}
(*) USINT
0800C944  2701     		mov r7, #1 ; 1
0800C946  4638     		mov r0, r7
0800C948  F8DF 421C		ldr r4, [pc, #+540] ; 0x80C4AFD
0800C94C  F044 0401		orr r4, r4, #1
0800C950  47A0     		blx r4

#21			ST		res	{LNXT:12|15|-1}
(*) USINT
0800C952  F8DF 723C		ldr r7, [pc, #+572] ; 0x2000C811
0800C956  7038     		strb r0, [r7]

#22		
#23			(* giStackPtr := 0; *)
#24			MOVE		0,giStackPtr	{LNXT:15|18|-1}
(*) USINT
0800C958  2000     		mov r0, #0 ; 0
0800C95A  F8DF 7238		ldr r7, [pc, #+568] ; 0x2000C814
0800C95E  8038     		strh r0, [r7]

#25		
#26			(* $giBackBufferCurr := -1; *)
#27			MOVE		-1,$giBackBufferCurr	{LNXT:18|19|-1}
(*) INT
0800C960  F04F 30FF		mov r0, #4294967295 ; 4294967295
0800C964  F8DF 7230		ldr r7, [pc, #+560] ; 0x2000C816
0800C968  8038     		strh r0, [r7]

#28		
#29			(* $giBackBufferFirst := -1; *)
#30			MOVE		-1,$giBackBufferFirst	{LNXT:19|20|-1}
(*) INT
0800C96A  F04F 30FF		mov r0, #4294967295 ; 4294967295
0800C96E  F8DF 722C		ldr r7, [pc, #+556] ; 0x2000C818
0800C972  8038     		strh r0, [r7]

#31		
#32			(* $giBackBufferLast := -1; *)
#33			MOVE		-1,$giBackBufferLast	{LNXT:20|23|-1}
(*) INT
0800C974  F04F 30FF		mov r0, #4294967295 ; 4294967295
0800C978  F8DF 7224		ldr r7, [pc, #+548] ; 0x2000C81A
0800C97C  8038     		strh r0, [r7]

#34		
#35			(* res := Video_SetEditKey( 0, kKEY_Enter ); *)
#36			LDP0		0	{LNXT:23|24|-1}
(-) INT
#37			Video_SetEditKey		kKEY_Enter	{LNXT:23|24|-1}
(*) INT
0800C97E  2000     		mov r0, #0 ; 0
0800C980  210D     		mov r1, #13 ; 13
0800C982  F8DF 41F0		ldr r4, [pc, #+496] ; 0x80C6567
0800C986  F044 0401		orr r4, r4, #1
0800C98A  47A0     		blx r4

#38			ST		res	{LNXT:23|24|-1}
(*) USINT
0800C98C  F8DF 7200		ldr r7, [pc, #+512] ; 0x2000C811
0800C990  7038     		strb r0, [r7]

#39		
#40			(* res := Video_SetEditKey( 1, kKEY_Esc ); *)
#41			LDP0		1	{LNXT:24|25|-1}
(-) USINT
#42			Video_SetEditKey		kKEY_Esc	{LNXT:24|25|-1}
(*) USINT
0800C992  2001     		mov r0, #1 ; 1
0800C994  211B     		mov r1, #27 ; 27
0800C996  F8DF 41DC		ldr r4, [pc, #+476] ; 0x80C6567
0800C99A  F044 0401		orr r4, r4, #1
0800C99E  47A0     		blx r4

#43			ST		res	{LNXT:24|25|-1}
(*) USINT
0800C9A0  F8DF 71EC		ldr r7, [pc, #+492] ; 0x2000C811
0800C9A4  7038     		strb r0, [r7]

#44		
#45			(* res := Video_SetEditKey( 2, kKEY_Del ); *)
#46			LDP0		2	{LNXT:25|26|-1}
(-) USINT
#47			Video_SetEditKey		kKEY_Del	{LNXT:25|26|-1}
(*) USINT
0800C9A6  2002     		mov r0, #2 ; 2
0800C9A8  217F     		mov r1, #127 ; 127
0800C9AA  F8DF 41C8		ldr r4, [pc, #+456] ; 0x80C6567
0800C9AE  F044 0401		orr r4, r4, #1
0800C9B2  47A0     		blx r4

#48			ST		res	{LNXT:25|26|-1}
(*) USINT
0800C9B4  F8DF 71D8		ldr r7, [pc, #+472] ; 0x2000C811
0800C9B8  7038     		strb r0, [r7]

#49		
#50			(* res := Video_SetEditKey( 3, kKEY_Left ); *)
#51			LDP0		3	{LNXT:26|27|-1}
(-) USINT
#52			Video_SetEditKey		kKEY_Left	{LNXT:26|27|-1}
(*) USINT
0800C9BA  2003     		mov r0, #3 ; 3
0800C9BC  2108     		mov r1, #8 ; 8
0800C9BE  F8DF 41B4		ldr r4, [pc, #+436] ; 0x80C6567
0800C9C2  F044 0401		orr r4, r4, #1
0800C9C6  47A0     		blx r4

#53			ST		res	{LNXT:26|27|-1}
(*) USINT
0800C9C8  F8DF 71C4		ldr r7, [pc, #+452] ; 0x2000C811
0800C9CC  7038     		strb r0, [r7]

#54		
#55			(* res := Video_SetEditKey( 4, kKEY_Right ); *)
#56			LDP0		4	{LNXT:27|28|-1}
(-) USINT
#57			Video_SetEditKey		kKEY_Right	{LNXT:27|28|-1}
(*) USINT
0800C9CE  2004     		mov r0, #4 ; 4
0800C9D0  210C     		mov r1, #12 ; 12
0800C9D2  F8DF 41A0		ldr r4, [pc, #+416] ; 0x80C6567
0800C9D6  F044 0401		orr r4, r4, #1
0800C9DA  47A0     		blx r4

#58			ST		res	{LNXT:27|28|-1}
(*) USINT
0800C9DC  F8DF 71B0		ldr r7, [pc, #+432] ; 0x2000C811
0800C9E0  7038     		strb r0, [r7]

#59		
#60			(* res := Video_SetEditKey( 5, kKEY_ArrowUp ); *)
#61			LDP0		5	{LNXT:28|29|-1}
(-) USINT
#62			Video_SetEditKey		kKEY_ArrowUp	{LNXT:28|29|-1}
(*) USINT
0800C9E2  2005     		mov r0, #5 ; 5
0800C9E4  210B     		mov r1, #11 ; 11
0800C9E6  F8DF 418C		ldr r4, [pc, #+396] ; 0x80C6567
0800C9EA  F044 0401		orr r4, r4, #1
0800C9EE  47A0     		blx r4

#63			ST		res	{LNXT:28|29|-1}
(*) USINT
0800C9F0  F8DF 719C		ldr r7, [pc, #+412] ; 0x2000C811
0800C9F4  7038     		strb r0, [r7]

#64		
#65			(* res := Video_SetEditKey( 6, kKEY_ArrowDw ); *)
#66			LDP0		6	{LNXT:29|30|-1}
(-) USINT
#67			Video_SetEditKey		kKEY_ArrowDw	{LNXT:29|30|-1}
(*) USINT
0800C9F6  2006     		mov r0, #6 ; 6
0800C9F8  210A     		mov r1, #10 ; 10
0800C9FA  F8DF 4178		ldr r4, [pc, #+376] ; 0x80C6567
0800C9FE  F044 0401		orr r4, r4, #1
0800CA02  47A0     		blx r4

#68			ST		res	{LNXT:29|30|-1}
(*) USINT
0800CA04  F8DF 7188		ldr r7, [pc, #+392] ; 0x2000C811
0800CA08  7038     		strb r0, [r7]

#69		
#70			(* res := Video_SetEditKey( 7, kKEY_Back ); *)
#71			LDP0		7	{LNXT:30|31|-1}
(-) USINT
#72			Video_SetEditKey		kKEY_Back	{LNXT:30|31|-1}
(*) USINT
0800CA0A  2007     		mov r0, #7 ; 7
0800CA0C  2104     		mov r1, #4 ; 4
0800CA0E  F8DF 4164		ldr r4, [pc, #+356] ; 0x80C6567
0800CA12  F044 0401		orr r4, r4, #1
0800CA16  47A0     		blx r4

#73			ST		res	{LNXT:30|31|-1}
(*) USINT
0800CA18  F8DF 7174		ldr r7, [pc, #+372] ; 0x2000C811
0800CA1C  7038     		strb r0, [r7]

#74		
#75			(* res := Video_SetEditKey( 8, kKEY_Tab ); *)
#76			LDP0		8	{LNXT:31|32|-1}
(-) USINT
#77			Video_SetEditKey		kKEY_Tab	{LNXT:31|32|-1}
(*) USINT
0800CA1E  2008     		mov r0, #8 ; 8
0800CA20  2109     		mov r1, #9 ; 9
0800CA22  F8DF 4150		ldr r4, [pc, #+336] ; 0x80C6567
0800CA26  F044 0401		orr r4, r4, #1
0800CA2A  47A0     		blx r4

#78			ST		res	{LNXT:31|32|-1}
(*) USINT
0800CA2C  F8DF 7160		ldr r7, [pc, #+352] ; 0x2000C811
0800CA30  7038     		strb r0, [r7]

#79		
#80			(* res := Video_SetEditKey( 9, kKEY_Shift ); *)
#81			LDP0		9	{LNXT:32|33|-1}
(-) USINT
#82			Video_SetEditKey		kKEY_Shift	{LNXT:32|33|-1}
(*) USINT
0800CA32  2009     		mov r0, #9 ; 9
0800CA34  2106     		mov r1, #6 ; 6
0800CA36  F8DF 413C		ldr r4, [pc, #+316] ; 0x80C6567
0800CA3A  F044 0401		orr r4, r4, #1
0800CA3E  47A0     		blx r4

#83			ST		res	{LNXT:32|33|-1}
(*) USINT
0800CA40  F8DF 714C		ldr r7, [pc, #+332] ; 0x2000C811
0800CA44  7038     		strb r0, [r7]

#84		
#85			(* res := Video_SetEditKey( 10, kKEY_Caps ); *)
#86			LDP0		10	{LNXT:33|34|-1}
(-) USINT
#87			Video_SetEditKey		kKEY_Caps	{LNXT:33|34|-1}
(*) USINT
0800CA46  200A     		mov r0, #10 ; 10
0800CA48  2105     		mov r1, #5 ; 5
0800CA4A  F8DF 4128		ldr r4, [pc, #+296] ; 0x80C6567
0800CA4E  F044 0401		orr r4, r4, #1
0800CA52  47A0     		blx r4

#88			ST		res	{LNXT:33|34|-1}
(*) USINT
0800CA54  F8DF 7138		ldr r7, [pc, #+312] ; 0x2000C811
0800CA58  7038     		strb r0, [r7]

#89		
#90			(* res := Video_SetEditKey( 11, kKEY_Confirm ); *)
#91			LDP0		11	{LNXT:34|37|-1}
(-) USINT
#92			Video_SetEditKey		kKEY_Confirm	{LNXT:34|37|-1}
(*) USINT
0800CA5A  200B     		mov r0, #11 ; 11
0800CA5C  210E     		mov r1, #14 ; 14
0800CA5E  F8DF 4114		ldr r4, [pc, #+276] ; 0x80C6567
0800CA62  F044 0401		orr r4, r4, #1
0800CA66  47A0     		blx r4

#93			ST		res	{LNXT:34|37|-1}
(*) USINT
0800CA68  F8DF 7124		ldr r7, [pc, #+292] ; 0x2000C811
0800CA6C  7038     		strb r0, [r7]

#94		
#95			(* res := Video_LoadLanguage( 0, ?kbResEnums[0] ); *)
#96			ADR		kbResEnums[0]	{LNXT:37|40|-1}
(*) USINT
0800CA6E  F8DF 00F0		ldr r0, [pc, #+240] ; 0x80080E0

#97			ST		$$TMP0	{LNXT:37|40|-1}
(*) @BYTE
0800CA72  F8DF 7130		ldr r7, [pc, #+304] ; 0x2000C81C
0800CA76  6038     		str r0, [r7]

#98			LDP0		0	{LNXT:37|40|-1}
(-) @BYTE
#99			Video_LoadLanguage		$$TMP0	{LNXT:37|40|-1}
(*) @BYTE
0800CA78  2700     		mov r7, #0 ; 0
0800CA7A  4638     		mov r0, r7
0800CA7C  F8DF 7124		ldr r7, [pc, #+292] ; 0x2000C81C
0800CA80  683F     		ldr r7, [r7]
0800CA82  4639     		mov r1, r7
0800CA84  F8DF 40F8		ldr r4, [pc, #+248] ; 0x80C8419
0800CA88  F044 0401		orr r4, r4, #1
0800CA8C  47A0     		blx r4

#100			ST		res	{LNXT:37|40|-1}
(*) USINT
0800CA8E  F8DF 7100		ldr r7, [pc, #+256] ; 0x2000C811
0800CA92  7038     		strb r0, [r7]

#101		
#102			(* res := Video_AddFontUnicode( ?EWP2_8x16, EWP2_8x16_len, EWP2_8x16_hei ); *)
#103			ADR		EWP2_8x16	{LNXT:40|41|-1}
(*) USINT
0800CA94  F8DF 00F0		ldr r0, [pc, #+240] ; 0x8200000

#104			Video_AddFontUnicode		EWP2_8x16_len, EWP2_8x16_hei	{LNXT:40|41|-1}
(*) @BYTE
0800CA98  4607     		mov r7, r0
0800CA9A  4638     		mov r0, r7
0800CA9C  2708     		mov r7, #8 ; 8
0800CA9E  4639     		mov r1, r7
0800CAA0  2210     		mov r2, #16 ; 16
0800CAA2  F8DF 40D4		ldr r4, [pc, #+212] ; 0x80C65F1
0800CAA6  F044 0401		orr r4, r4, #1
0800CAAA  47A0     		blx r4

#105			ST		res	{LNXT:40|41|-1}
(*) USINT
0800CAAC  F8DF 70E0		ldr r7, [pc, #+224] ; 0x2000C811
0800CAB0  7038     		strb r0, [r7]

#106		
#107			(* res := Video_AddFontUnicode( ?DroidSansMono_12x24, DroidSansMono_12x24_len, DroidSansMono_12x24_hei ); *)
#108			ADR		DroidSansMono_12x24	{LNXT:41|44|-1}
(*) USINT
0800CAB2  F8DF 00D8		ldr r0, [pc, #+216] ; 0x8200008

#109			Video_AddFontUnicode		DroidSansMono_12x24_len, DroidSansMono_12x24_hei	{LNXT:41|44|-1}
(*) @BYTE
0800CAB6  4607     		mov r7, r0
0800CAB8  4638     		mov r0, r7
0800CABA  270C     		mov r7, #12 ; 12
0800CABC  4639     		mov r1, r7
0800CABE  2218     		mov r2, #24 ; 24
0800CAC0  F8DF 40B4		ldr r4, [pc, #+180] ; 0x80C65F1
0800CAC4  F044 0401		orr r4, r4, #1
0800CAC8  47A0     		blx r4

#110			ST		res	{LNXT:41|44|-1}
(*) USINT
0800CACA  F8DF 70C4		ldr r7, [pc, #+196] ; 0x2000C811
0800CACE  7038     		strb r0, [r7]

#111		
#112			(* res := Video_SetWndSysProps( ?EWP2_8x16, 12632256, 0 ); *)
#113			ADR		EWP2_8x16	{LNXT:44|49|-1}
(*) USINT
0800CAD0  F8DF 00B4		ldr r0, [pc, #+180] ; 0x8200000

#114			Video_SetWndSysProps		12632256, 0	{LNXT:44|49|-1}
(*) @BYTE
0800CAD4  4607     		mov r7, r0
0800CAD6  4638     		mov r0, r7
0800CAD8  F8DF 7080		ldr r7, [pc, #+128] ; 0xC0C0C0
0800CADC  4639     		mov r1, r7
0800CADE  2700     		mov r7, #0 ; 0
0800CAE0  463A     		mov r2, r7
0800CAE2  F8DF 408C		ldr r4, [pc, #+140] ; 0x80C653F
0800CAE6  F044 0401		orr r4, r4, #1
0800CAEA  47A0     		blx r4

#115			ST		res	{LNXT:44|49|-1}
(*) USINT
0800CAEC  F8DF 70A0		ldr r7, [pc, #+160] ; 0x2000C811
0800CAF0  7038     		strb r0, [r7]

#116		
#117			(* guiCallStack[ giStackPtr ] := 0; *)
#118			MOVE		0,guiCallStack[giStackPtr]	{LNXT:49|50|-1}
(*) USINT
0800CAF2  2000     		mov r0, #0 ; 0
0800CAF4  F8DF 709C		ldr r7, [pc, #+156] ; 0x2000C814
0800CAF8  F9B7 5000		ldrsh r5, [r7]
0800CAFC  F8DF 70A8		ldr r7, [pc, #+168] ; 0x2000C820
0800CB00  EB07 0745		add r7, r7, r5, lsl #1
0800CB04  8038     		strh r0, [r7]

#119		
#120			(* WHILE TRUE *)
#121		$label0:
#122			LD		TRUE	{LNXT:50|-1|-1}
(-) UNDEF
0800CB06  2001     		mov r0, #1 ; 1

#123			JMPCN		$label1	{LNXT:50|52|3}
(-) BOOL
0800CB08  2800     		cmp r0, #0
0800CB0A  D020     		beq #64 ; 0x0800CB4E


#124		
#125			(* DO *)
#126		
#127				(* CASE guiCallStack[ giStackPtr ] OF *)
#128		
#129				(* 0: *)
#130				LD		guiCallStack[giStackPtr]	{LNXT:53|-1|-1}
(*) UNDEF
0800CB0E  F8DF 7084		ldr r7, [pc, #+132] ; 0x2000C814
0800CB12  F9B7 5000		ldrsh r5, [r7]
0800CB16  F8DF 7090		ldr r7, [pc, #+144] ; 0x2000C820
0800CB1A  EB07 0745		add r7, r7, r5, lsl #1
0800CB1E  8838     		ldrh r0, [r7]

#131				EQ		0	{LNXT:53|-1|-1}
(*) UINT
0800CB20  2800     		cmp r0, #0
0800CB22  BF18 2000		nemov r0, #0
0800CB26  BF08 2001		eqmov r0, #1

#132				JMPC		$label3	{LNXT:53|54|50}
(-) BOOL
0800CB2A  2800     		cmp r0, #0
0800CB2C  D102     		bne #4 ; 0x0800CB34


#133				JMP		$label2	{LNXT:53|54|50}
(-) BOOL
0800CB30  E00C     		b #24 ; 0x0800CB4C


#134		
#135				(* Istruzioni di ciascun CASE: *)
#136		
#137		$label3:
#138					(* fbTouchScreen *)
#139					CAL		fbTouchScreen	{LNXT:54|50|-1}
(*) BOOL
0800CB34  E92D 0021		stmdb sp!, { r0, r5 }
0800CB38  F8DF 7070		ldr r7, [pc, #+112] ; 0x2000C834
0800CB3C  463D     		mov r5, r7
0800CB3E  F8DF 4024		ldr r4, [pc, #+36] ; 0x800C4C0
0800CB42  F044 0401		orr r4, r4, #1
0800CB46  47A0     		blx r4
0800CB48  E8BD 0021		ldmia sp!, { r0, r5 }

#140		
#141		$label2:
#142		
#143				(* END_CASE *)
#144				JMP		$label0	{LNXT:50|52|3}
(-) BOOL
0800CB4C  E7DB     		b #-74 ; 0x0800CB06

0800CB4E  E8BD 0FF0		ldmia sp!, { r4, r5, r6, r7, r8, r9, r10, r11 }
0800CB52  F8DD E000		ldr lr, [sp]
0800CB56  B002     		add sp, sp, #8

0800CB58  4770     		bx lr

0800CB5C  00C0C0C0		; 0x00C0C0C0
0800CB60  080080E0		; 0x080080E0
0800CB64  0800C4C0		; 0x0800C4C0
0800CB68  080C4AFD		; 0x080C4AFD
0800CB6C  080C4B01		; 0x080C4B01
0800CB70  080C653F		; 0x080C653F
0800CB74  080C6567		; 0x080C6567
0800CB78  080C65F1		; 0x080C65F1
0800CB7C  080C82C5		; 0x080C82C5
0800CB80  080C8419		; 0x080C8419
0800CB84  080C95AD		; 0x080C95AD
0800CB88  08200000		; 0x08200000
0800CB8C  08200008		; 0x08200008
0800CB90  2000C811		; 0x2000C811
0800CB94  2000C814		; 0x2000C814
0800CB98  2000C816		; 0x2000C816
0800CB9C  2000C818		; 0x2000C818
0800CBA0  2000C81A		; 0x2000C81A
0800CBA4  2000C81C		; 0x2000C81C
0800CBA8  2000C820		; 0x2000C820
0800CBAC  2000C834		; 0x2000C834

END_PROGRAM


**************************************************
	Target variable image generation
**************************************************


*** INPUT:
0800CBB0  4770     		bx lr


*** OUTPUT:
0800CBB2  4770     		bx lr



**************************************************
	Task Draw init code
**************************************************

0800CBB4  B082     		sub sp, sp, #8
0800CBB6  F8CD E000		str lr, [sp]
0800CBBA  E92D 0FF0		stmdb sp!, { r4, r5, r6, r7, r8, r9, r10, r11 }

0800CBBE  E8BD 0FF0		ldmia sp!, { r4, r5, r6, r7, r8, r9, r10, r11 }
0800CBC2  F8DD E000		ldr lr, [sp]
0800CBC6  B002     		add sp, sp, #8

0800CBC8  4770     		bx lr

**************************************************
	List program: InitParDB
**************************************************

PROGRAM InitParDB

        VAR
warningsKiller : USINT;
dummyCrc32 : UDINT;
	END_VAR

END_PROGRAM

0800CBE0  B082     		sub sp, sp, #8
0800CBE2  F8CD E000		str lr, [sp]
0800CBE6  E92D 0FF0		stmdb sp!, { r4, r5, r6, r7, r8, r9, r10, r11 }

#0		{SRC:InitParDB}
#1		(*$WAITSWITCH$*)
#2		
#3			(* dummyCrc32 := 0; *)
#4			MOVE		0,dummyCrc32	{LNXT:3|5|-1}
(*) UDINT
0800CBEA  2000     		mov r0, #0 ; 0
0800CBEC  F8DF 7050		ldr r7, [pc, #+80] ; 0x2000C80C
0800CBF0  6038     		str r0, [r7]

#5		
#6			(* warningsKiller := sysDBase_SetExtTable( 0, 0, 0, 0, 0, 0, 0, 0, 0, 0 ); *)
#7			LDP0		0	{LNXT:5|3|-1}
(-) UDINT
#8			sysDBase_SetExtTable		0, 0, 0, 0, 0, 0, 0, 0, 0	{LNXT:5|3|-1}
(*) UDINT
0800CBF2  B086     		sub sp, sp, #24
0800CBF4  2700     		mov r7, #0 ; 0
0800CBF6  4638     		mov r0, r7
0800CBF8  2700     		mov r7, #0 ; 0
0800CBFA  4639     		mov r1, r7
0800CBFC  2700     		mov r7, #0 ; 0
0800CBFE  463A     		mov r2, r7
0800CC00  2700     		mov r7, #0 ; 0
0800CC02  463B     		mov r3, r7
0800CC04  2700     		mov r7, #0 ; 0
0800CC06  F8CD 7000		str r7, [sp]
0800CC0A  2700     		mov r7, #0 ; 0
0800CC0C  F8CD 7004		str r7, [sp, #+4]
0800CC10  2700     		mov r7, #0 ; 0
0800CC12  F8CD 7008		str r7, [sp, #+8]
0800CC16  2700     		mov r7, #0 ; 0
0800CC18  F8CD 700C		str r7, [sp, #+12]
0800CC1C  2700     		mov r7, #0 ; 0
0800CC1E  F8CD 7010		str r7, [sp, #+16]
0800CC22  2700     		mov r7, #0 ; 0
0800CC24  F8CD 7014		str r7, [sp, #+20]
0800CC28  F8DF 4010		ldr r4, [pc, #+16] ; 0x80D955D
0800CC2C  F044 0401		orr r4, r4, #1
0800CC30  47A0     		blx r4
0800CC32  B006     		add sp, sp, #24

#9			ST		warningsKiller	{LNXT:5|3|-1}
(*) USINT
0800CC34  F8DF 700C		ldr r7, [pc, #+12] ; 0x2000C810
0800CC38  7038     		strb r0, [r7]

0800CC3A  E005     		b #10

0800CC3C  080D955D		; 0x080D955D
0800CC40  2000C80C		; 0x2000C80C
0800CC44  2000C810		; 0x2000C810

END_PROGRAM
**************************************************
	List program: ParCheck
**************************************************

PROGRAM ParCheck

END_PROGRAM

#0		{SRC:ParCheck}
#1		(*$WAITSWITCH$*)
#2		
#3		
#4			(* IF sysPar_PARPOLI AND 16#fc00) <> 2048 *)
#5			LD		sysPar_PARPOLI	{LNXT:2|-1|-1}
(*) UNDEF
0800CC48  F8DF 7034		ldr r7, [pc, #+52] ; 0x20008976
0800CC4C  8838     		ldrh r0, [r7]

#6			AND		16#fc00	{LNXT:2|-1|-1}
(*) UINT
0800CC4E  F44F 477C		mov r7, #64512 ; 64512
0800CC52  4038     		and r0, r0, r7

#7			NE		2048	{LNXT:2|-1|-1}
(*) UINT
0800CC54  F44F 6700		mov r7, #2048 ; 2048
0800CC58  42B8     		cmp r0, r7
0800CC5A  BF08 2000		eqmov r0, #0
0800CC5E  BF18 2001		nemov r0, #1

#8			JMPCN	$label0	{LNXT:2|3|2}
(-) BOOL
0800CC62  2800     		cmp r0, #0
0800CC64  D005     		beq #10 ; 0x0800CC72


#9		
#10			(* THEN *)
#11		
#12				(* WHILE TRUE *)
#13		$label1:
#14				LD		TRUE	{LNXT:3|-1|-1}
(-) UNDEF
0800CC68  2001     		mov r0, #1 ; 1

#15				JMPCN		$label2	{LNXT:3|2|2}
(-) BOOL
0800CC6A  2800     		cmp r0, #0
0800CC6C  D001     		beq #2 ; 0x0800CC72


#16		
#17				(* DO *)
#18					JMP		$label1	{LNXT:3|2|2}
(-) BOOL
0800CC70  E7FA     		b #-12 ; 0x0800CC68

0800CC72  E8BD 0FF0		ldmia sp!, { r4, r5, r6, r7, r8, r9, r10, r11 }
0800CC76  F8DD E000		ldr lr, [sp]
0800CC7A  B002     		add sp, sp, #8

0800CC7C  4770     		bx lr

0800CC80  20008976		; 0x20008976

END_PROGRAM


**************************************************
	Target variable image generation
**************************************************


*** INPUT:
0800CC84  4770     		bx lr


*** OUTPUT:
0800CC86  4770     		bx lr



**************************************************
	Task Init init code
**************************************************

0800CC88  B082     		sub sp, sp, #8
0800CC8A  F8CD E000		str lr, [sp]
0800CC8E  E92D 0FF0		stmdb sp!, { r4, r5, r6, r7, r8, r9, r10, r11 }

0800CC92  E8BD 0FF0		ldmia sp!, { r4, r5, r6, r7, r8, r9, r10, r11 }
0800CC96  F8DD E000		ldr lr, [sp]
0800CC9A  B002     		add sp, sp, #8

0800CC9C  4770     		bx lr

**************************************************
	List program: PageRefresh
**************************************************

PROGRAM PageRefresh

        VAR
res : USINT;
	END_VAR

END_PROGRAM

0800CCB0  B082     		sub sp, sp, #8
0800CCB2  F8CD E000		str lr, [sp]
0800CCB6  E92D 0FF0		stmdb sp!, { r4, r5, r6, r7, r8, r9, r10, r11 }

#0		{SRC:PageRefresh}
#1		(*$WAITSWITCH$*)
#2		
#3			(* WHILE giStackPtr < 0 *)
#4		$label0:
#5			LD		giStackPtr	{LNXT:3|-1|-1}
(*) UNDEF
0800CCBA  F8DF 709C		ldr r7, [pc, #+156] ; 0x2000C814
0800CCBE  F9B7 0000		ldrsh r0, [r7]

#6			LT		0	{LNXT:3|-1|-1}
(*) INT
0800CCC2  2800     		cmp r0, #0
0800CCC4  BFA8 2000		gemov r0, #0
0800CCC8  BFB8 2001		ltmov r0, #1

#7			JMPCN		$label1	{LNXT:3|4|7}
(-) BOOL
0800CCCC  2800     		cmp r0, #0
0800CCCE  D00B     		beq #22 ; 0x0800CCE8


#8		
#9			(* DO *)
#10				(* res := Video_Sleep(50); *)
#11				LDP0		50	{LNXT:4|3|-1}
(-) BOOL
#12				Video_Sleep	{LNXT:4|3|-1}
(*) BOOL
0800CCD2  2732     		mov r7, #50 ; 50
0800CCD4  4638     		mov r0, r7
0800CCD6  F8DF 407C		ldr r4, [pc, #+124] ; 0x80C82E9
0800CCDA  F044 0401		orr r4, r4, #1
0800CCDE  47A0     		blx r4

#13				ST		res	{LNXT:4|3|-1}
(*) USINT
0800CCE0  F8DF 707C		ldr r7, [pc, #+124] ; 0x2000C889
0800CCE4  7038     		strb r0, [r7]

#14				JMP		$label0	{LNXT:3|4|7}
(-) USINT
0800CCE6  E7E8     		b #-48 ; 0x0800CCBA

#15		
#16		$label1:
#17			(* END_WHILE *)
#18		
#19			(* WHILE TRUE *)
#20		$label2:
#21			LD		TRUE	{LNXT:7|-1|-1}
(-) UNDEF
0800CCE8  2001     		mov r0, #1 ; 1

#22			JMPCN		$label3	{LNXT:7|9|3}
(-) BOOL
0800CCEA  2800     		cmp r0, #0
0800CCEC  D02A     		beq #84 ; 0x0800CD44


#23		
#24			(* DO *)
#25		
#26				(* CASE guiCallStack[ giStackPtr ] OF *)
#27		
#28				(* 0: *)
#29				LD		guiCallStack[giStackPtr]	{LNXT:10|-1|-1}
(*) UNDEF
0800CCF0  F8DF 7064		ldr r7, [pc, #+100] ; 0x2000C814
0800CCF4  F9B7 5000		ldrsh r5, [r7]
0800CCF8  F8DF 7060		ldr r7, [pc, #+96] ; 0x2000C820
0800CCFC  EB07 0745		add r7, r7, r5, lsl #1
0800CD00  8838     		ldrh r0, [r7]

#30				EQ		0	{LNXT:10|-1|-1}
(*) UINT
0800CD02  2800     		cmp r0, #0
0800CD04  BF18 2000		nemov r0, #0
0800CD08  BF08 2001		eqmov r0, #1

#31				JMPC		$label5	{LNXT:10|11|16}
(-) BOOL
0800CD0C  2800     		cmp r0, #0
0800CD0E  D102     		bne #4 ; 0x0800CD16


#32				JMP		$label4	{LNXT:10|11|16}
(-) BOOL
0800CD12  E00C     		b #24 ; 0x0800CD2E


#33		
#34				(* Istruzioni di ciascun CASE: *)
#35		
#36		$label5:
#37					(* fbRefrTouchScreen *)
#38					CAL		fbRefrTouchScreen	{LNXT:11|16|-1}
(*) BOOL
0800CD16  E92D 0021		stmdb sp!, { r0, r5 }
0800CD1A  F8DF 7048		ldr r7, [pc, #+72] ; 0x2000CADC
0800CD1E  463D     		mov r5, r7
0800CD20  F8DF 402C		ldr r4, [pc, #+44] ; 0x800C3FC
0800CD24  F044 0401		orr r4, r4, #1
0800CD28  47A0     		blx r4
0800CD2A  E8BD 0021		ldmia sp!, { r0, r5 }

#39		
#40		$label4:
#41		
#42				(* END_CASE *)
#43		
#44				(* res := Video_Sleep( 50 ); *)
#45				LDP0		50	{LNXT:16|7|-1}
(-) BOOL
#46				Video_Sleep	{LNXT:16|7|-1}
(*) BOOL
0800CD2E  2732     		mov r7, #50 ; 50
0800CD30  4638     		mov r0, r7
0800CD32  F8DF 4020		ldr r4, [pc, #+32] ; 0x80C82E9
0800CD36  F044 0401		orr r4, r4, #1
0800CD3A  47A0     		blx r4

#47				ST		res	{LNXT:16|7|-1}
(*) USINT
0800CD3C  F8DF 7020		ldr r7, [pc, #+32] ; 0x2000C889
0800CD40  7038     		strb r0, [r7]

#48				JMP		$label2	{LNXT:7|9|3}
(-) USINT
0800CD42  E7D1     		b #-94 ; 0x0800CCE8

0800CD44  E8BD 0FF0		ldmia sp!, { r4, r5, r6, r7, r8, r9, r10, r11 }
0800CD48  F8DD E000		ldr lr, [sp]
0800CD4C  B002     		add sp, sp, #8

0800CD4E  4770     		bx lr

0800CD50  0800C3FC		; 0x0800C3FC
0800CD54  080C82E9		; 0x080C82E9
0800CD58  2000C814		; 0x2000C814
0800CD5C  2000C820		; 0x2000C820
0800CD60  2000C889		; 0x2000C889
0800CD64  2000CADC		; 0x2000CADC

END_PROGRAM


**************************************************
	Target variable image generation
**************************************************


*** INPUT:
0800CD68  4770     		bx lr


*** OUTPUT:
0800CD6A  4770     		bx lr



**************************************************
	Task Refresh init code
**************************************************

0800CD6C  B082     		sub sp, sp, #8
0800CD6E  F8CD E000		str lr, [sp]
0800CD72  E92D 0FF0		stmdb sp!, { r4, r5, r6, r7, r8, r9, r10, r11 }

0800CD76  E8BD 0FF0		ldmia sp!, { r4, r5, r6, r7, r8, r9, r10, r11 }
0800CD7A  F8DD E000		ldr lr, [sp]
0800CD7E  B002     		add sp, sp, #8

0800CD80  4770     		bx lr



**************************************************
	Global init code
**************************************************

0800CD90  B082     		sub sp, sp, #8
0800CD92  F8CD E000		str lr, [sp]
0800CD96  E92D 0FF0		stmdb sp!, { r4, r5, r6, r7, r8, r9, r10, r11 }

Var init: V:HMI:GISTACKPTR = -1
0800CD9A  F8DF 03AC		ldr r0, [pc, #+940] ; 0xFFFFFFFF
0800CD9E  F8DF 7438		ldr r7, [pc, #+1080] ; 0x2000C814
0800CDA2  8038     		strh r0, [r7]

Var init: V:HMI:$GIBACKBUFFERCURR = -1
0800CDA4  F8DF 03A0		ldr r0, [pc, #+928] ; 0xFFFFFFFF
0800CDA8  F8DF 7430		ldr r7, [pc, #+1072] ; 0x2000C816
0800CDAC  8038     		strh r0, [r7]

Var init: V:HMI:$GIBACKBUFFERFIRST = -1
0800CDAE  F8DF 0398		ldr r0, [pc, #+920] ; 0xFFFFFFFF
0800CDB2  F8DF 742C		ldr r7, [pc, #+1068] ; 0x2000C818
0800CDB6  8038     		strh r0, [r7]

Var init: V:HMI:$GIBACKBUFFERLAST = -1
0800CDB8  F8DF 038C		ldr r0, [pc, #+908] ; 0xFFFFFFFF
0800CDBC  F8DF 7424		ldr r7, [pc, #+1060] ; 0x2000C81A
0800CDC0  8038     		strh r0, [r7]

Var init: V:HMI:FBTOUCHSCREENEDIT_1.WHND = 2
0800CDC2  F8DF 038C		ldr r0, [pc, #+908] ; 0x2
0800CDC6  F8DF 7420		ldr r7, [pc, #+1056] ; 0x2000C89C
0800CDCA  8038     		strh r0, [r7]

Var init: V:HMI:FBTOUCHSCREENEDIT_1.X1 = 174
0800CDCC  F8DF 03D0		ldr r0, [pc, #+976] ; 0xAE
0800CDD0  F8DF 7418		ldr r7, [pc, #+1048] ; 0x2000C89E
0800CDD4  8038     		strh r0, [r7]

Var init: V:HMI:FBTOUCHSCREENEDIT_1.Y1 = 8
0800CDD6  F8DF 0390		ldr r0, [pc, #+912] ; 0x8
0800CDDA  F8DF 7414		ldr r7, [pc, #+1044] ; 0x2000C8A0
0800CDDE  8038     		strh r0, [r7]

Var init: V:HMI:FBTOUCHSCREENEDIT_1.X2 = 221
0800CDE0  F8DF 03C8		ldr r0, [pc, #+968] ; 0xDD
0800CDE4  F8DF 740C		ldr r7, [pc, #+1036] ; 0x2000C8A2
0800CDE8  8038     		strh r0, [r7]

Var init: V:HMI:FBTOUCHSCREENEDIT_1.Y2 = 31
0800CDEA  F8DF 0384		ldr r0, [pc, #+900] ; 0x1F
0800CDEE  F8DF 7408		ldr r7, [pc, #+1032] ; 0x2000C8A4
0800CDF2  8038     		strh r0, [r7]

Var init: V:HMI:FBTOUCHSCREENEDIT_1.PFONT = 
0800CDF4  F8DF 7404		ldr r7, [pc, #+1028] ; 0x2000C8A8
0800CDF8  F8DF 03D8		ldr r0, [pc, #+984] ; 0x8200008
0800CDFC  6038     		str r0, [r7]

Var init: V:HMI:FBTOUCHSCREENEDIT_1.BCKCOL = 16777215
0800CDFE  F8DF 03C4		ldr r0, [pc, #+964] ; 0xFFFFFF
0800CE02  F8DF 73FC		ldr r7, [pc, #+1020] ; 0x2000C8B4
0800CE06  6038     		str r0, [r7]

Var init: V:HMI:FBTOUCHSCREENEDIT_1.FORESELCOL = 16777215
0800CE08  F8DF 03B8		ldr r0, [pc, #+952] ; 0xFFFFFF
0800CE0C  F8DF 73F4		ldr r7, [pc, #+1012] ; 0x2000C8B8
0800CE10  6038     		str r0, [r7]

Var init: V:HMI:FBTOUCHSCREENEDIT_1.RW = 1
0800CE12  F8DF 0338		ldr r0, [pc, #+824] ; 0x1
0800CE16  F8DF 73F0		ldr r7, [pc, #+1008] ; 0x2000C8C8
0800CE1A  7038     		strb r0, [r7]

Var init: V:HMI:FBTOUCHSCREENEDIT_1.REFR = 1
0800CE1C  F8DF 032C		ldr r0, [pc, #+812] ; 0x1
0800CE20  F8DF 73E8		ldr r7, [pc, #+1000] ; 0x2000C8C9
0800CE24  7038     		strb r0, [r7]

Var init: V:HMI:FBTOUCHSCREENEDIT_1.PVAR = 2101248
0800CE26  F8DF 0390		ldr r0, [pc, #+912] ; 0x201000
0800CE2A  F8DF 73E4		ldr r7, [pc, #+996] ; 0x2000C8CC
0800CE2E  6038     		str r0, [r7]

Var init: V:HMI:FBTOUCHSCREENEDIT_1.TYPE = 5
0800CE30  F8DF 0328		ldr r0, [pc, #+808] ; 0x5
0800CE34  F8DF 73DC		ldr r7, [pc, #+988] ; 0x2000C8D0
0800CE38  7038     		strb r0, [r7]

Var init: V:HMI:FBTOUCHSCREENEDIT_1.FORMAT = 16777228
0800CE3A  F8DF 038C		ldr r0, [pc, #+908] ; 0x100000C
0800CE3E  F8DF 73D8		ldr r7, [pc, #+984] ; 0x2000C8DC
0800CE42  6038     		str r0, [r7]

Var init: V:HMI:FBTOUCHSCREENEDIT_1.PVISVAR = 1
0800CE44  F8DF 0304		ldr r0, [pc, #+772] ; 0x1
0800CE48  F8DF 73D0		ldr r7, [pc, #+976] ; 0x2000C8E0
0800CE4C  6038     		str r0, [r7]

Var init: V:HMI:FBTOUCHSCREENEDIT_1.ORDER = 1
0800CE4E  F8DF 02FC		ldr r0, [pc, #+764] ; 0x1
0800CE52  F8DF 73CC		ldr r7, [pc, #+972] ; 0x2000C8E8
0800CE56  7038     		strb r0, [r7]

Var init: V:HMI:FBTOUCHSCREENSTRING_7.X = 7
0800CE58  F8DF 0308		ldr r0, [pc, #+776] ; 0x7
0800CE5C  F8DF 73C4		ldr r7, [pc, #+964] ; 0x2000C902
0800CE60  8038     		strh r0, [r7]

Var init: V:HMI:FBTOUCHSCREENSTRING_7.Y = 8
0800CE62  F8DF 0304		ldr r0, [pc, #+772] ; 0x8
0800CE66  F8DF 73C0		ldr r7, [pc, #+960] ; 0x2000C904
0800CE6A  8038     		strh r0, [r7]

Var init: V:HMI:FBTOUCHSCREENSTRING_7.PSTRING = 
0800CE6C  F8DF 73BC		ldr r7, [pc, #+956] ; 0x2000C908
0800CE70  F8DF 0358		ldr r0, [pc, #+856] ; 0x8008128
0800CE74  6038     		str r0, [r7]

Var init: V:HMI:FBTOUCHSCREENSTRING_7.PFONT = 
0800CE76  F8DF 73B8		ldr r7, [pc, #+952] ; 0x2000C90C
0800CE7A  F8DF 0358		ldr r0, [pc, #+856] ; 0x8200008
0800CE7E  6038     		str r0, [r7]

Var init: V:HMI:FBTOUCHSCREENSTRING_7.BCKCOL = 16777215
0800CE80  F8DF 0340		ldr r0, [pc, #+832] ; 0xFFFFFF
0800CE84  F8DF 73AC		ldr r7, [pc, #+940] ; 0x2000C914
0800CE88  6038     		str r0, [r7]

Var init: V:HMI:FBTOUCHSCREENSTRING_7.PVISVAR = 1
0800CE8A  F8DF 02C0		ldr r0, [pc, #+704] ; 0x1
0800CE8E  F8DF 73A8		ldr r7, [pc, #+936] ; 0x2000C918
0800CE92  6038     		str r0, [r7]

Var init: V:HMI:FBTOUCHSCREENSTRING_7.FORMAT = 32
0800CE94  F8DF 02DC		ldr r0, [pc, #+732] ; 0x20
0800CE98  F8DF 73A0		ldr r7, [pc, #+928] ; 0x2000C91C
0800CE9C  8038     		strh r0, [r7]

Var init: V:HMI:FBTOUCHSCREENSTRING_7.SELFORECOL = 16777215
0800CE9E  F8DF 0324		ldr r0, [pc, #+804] ; 0xFFFFFF
0800CEA2  F8DF 739C		ldr r7, [pc, #+924] ; 0x2000C928
0800CEA6  6038     		str r0, [r7]

Var init: V:HMI:FBTOUCHSCREENLINE_9.X1 = 7
0800CEA8  F8DF 02B8		ldr r0, [pc, #+696] ; 0x7
0800CEAC  F8DF 7394		ldr r7, [pc, #+916] ; 0x2000C938
0800CEB0  8038     		strh r0, [r7]

Var init: V:HMI:FBTOUCHSCREENLINE_9.Y1 = 40
0800CEB2  F8DF 02CC		ldr r0, [pc, #+716] ; 0x28
0800CEB6  F8DF 7390		ldr r7, [pc, #+912] ; 0x2000C93A
0800CEBA  8038     		strh r0, [r7]

Var init: V:HMI:FBTOUCHSCREENLINE_9.X2 = 230
0800CEBC  F8DF 02F0		ldr r0, [pc, #+752] ; 0xE6
0800CEC0  F8DF 7388		ldr r7, [pc, #+904] ; 0x2000C93C
0800CEC4  8038     		strh r0, [r7]

Var init: V:HMI:FBTOUCHSCREENLINE_9.Y2 = 40
0800CEC6  F8DF 02B8		ldr r0, [pc, #+696] ; 0x28
0800CECA  F8DF 7384		ldr r7, [pc, #+900] ; 0x2000C93E
0800CECE  8038     		strh r0, [r7]

Var init: V:HMI:FBTOUCHSCREENLINE_9.BORDPTS = 1
0800CED0  F8DF 0278		ldr r0, [pc, #+632] ; 0x1
0800CED4  F8DF 737C		ldr r7, [pc, #+892] ; 0x2000C941
0800CED8  7038     		strb r0, [r7]

Var init: V:HMI:FBTOUCHSCREENSTRING_14.WHND = 1
0800CEDA  F8DF 0270		ldr r0, [pc, #+624] ; 0x1
0800CEDE  F8DF 7378		ldr r7, [pc, #+888] ; 0x2000C950
0800CEE2  8038     		strh r0, [r7]

Var init: V:HMI:FBTOUCHSCREENSTRING_14.X = 7
0800CEE4  F8DF 027C		ldr r0, [pc, #+636] ; 0x7
0800CEE8  F8DF 7370		ldr r7, [pc, #+880] ; 0x2000C952
0800CEEC  8038     		strh r0, [r7]

Var init: V:HMI:FBTOUCHSCREENSTRING_14.Y = 51
0800CEEE  F8DF 0294		ldr r0, [pc, #+660] ; 0x33
0800CEF2  F8DF 736C		ldr r7, [pc, #+876] ; 0x2000C954
0800CEF6  8038     		strh r0, [r7]

Var init: V:HMI:FBTOUCHSCREENSTRING_14.PSTRING = 
0800CEF8  F8DF 7368		ldr r7, [pc, #+872] ; 0x2000C958
0800CEFC  F8DF 02D0		ldr r0, [pc, #+720] ; 0x8008138
0800CF00  6038     		str r0, [r7]

Var init: V:HMI:FBTOUCHSCREENSTRING_14.PFONT = 
0800CF02  F8DF 7364		ldr r7, [pc, #+868] ; 0x2000C95C
0800CF06  F8DF 02CC		ldr r0, [pc, #+716] ; 0x8200008
0800CF0A  6038     		str r0, [r7]

Var init: V:HMI:FBTOUCHSCREENSTRING_14.BCKCOL = 16777215
0800CF0C  F8DF 02B4		ldr r0, [pc, #+692] ; 0xFFFFFF
0800CF10  F8DF 7358		ldr r7, [pc, #+856] ; 0x2000C964
0800CF14  6038     		str r0, [r7]

Var init: V:HMI:FBTOUCHSCREENSTRING_14.PVISVAR = 1
0800CF16  F8DF 0234		ldr r0, [pc, #+564] ; 0x1
0800CF1A  F8DF 7354		ldr r7, [pc, #+852] ; 0x2000C968
0800CF1E  6038     		str r0, [r7]

Var init: V:HMI:FBTOUCHSCREENSTRING_14.FORMAT = 32
0800CF20  F8DF 0250		ldr r0, [pc, #+592] ; 0x20
0800CF24  F8DF 734C		ldr r7, [pc, #+844] ; 0x2000C96C
0800CF28  8038     		strh r0, [r7]

Var init: V:HMI:FBTOUCHSCREENSTRING_14.SELFORECOL = 16777215
0800CF2A  F8DF 0298		ldr r0, [pc, #+664] ; 0xFFFFFF
0800CF2E  F8DF 7348		ldr r7, [pc, #+840] ; 0x2000C978
0800CF32  6038     		str r0, [r7]

Var init: V:HMI:FBTOUCHSCREENEDIT_15.WHND = 3
0800CF34  F8DF 021C		ldr r0, [pc, #+540] ; 0x3
0800CF38  F8DF 7340		ldr r7, [pc, #+832] ; 0x2000C998
0800CF3C  8038     		strh r0, [r7]

Var init: V:HMI:FBTOUCHSCREENEDIT_15.X1 = 174
0800CF3E  F8DF 0260		ldr r0, [pc, #+608] ; 0xAE
0800CF42  F8DF 733C		ldr r7, [pc, #+828] ; 0x2000C99A
0800CF46  8038     		strh r0, [r7]

Var init: V:HMI:FBTOUCHSCREENEDIT_15.Y1 = 51
0800CF48  F8DF 0238		ldr r0, [pc, #+568] ; 0x33
0800CF4C  F8DF 7334		ldr r7, [pc, #+820] ; 0x2000C99C
0800CF50  8038     		strh r0, [r7]

Var init: V:HMI:FBTOUCHSCREENEDIT_15.X2 = 221
0800CF52  F8DF 0258		ldr r0, [pc, #+600] ; 0xDD
0800CF56  F8DF 7330		ldr r7, [pc, #+816] ; 0x2000C99E
0800CF5A  8038     		strh r0, [r7]

Var init: V:HMI:FBTOUCHSCREENEDIT_15.Y2 = 74
0800CF5C  F8DF 0228		ldr r0, [pc, #+552] ; 0x4A
0800CF60  F8DF 7328		ldr r7, [pc, #+808] ; 0x2000C9A0
0800CF64  8038     		strh r0, [r7]

Var init: V:HMI:FBTOUCHSCREENEDIT_15.PFONT = 
0800CF66  F8DF 7328		ldr r7, [pc, #+808] ; 0x2000C9A4
0800CF6A  F8DF 0268		ldr r0, [pc, #+616] ; 0x8200008
0800CF6E  6038     		str r0, [r7]

Var init: V:HMI:FBTOUCHSCREENEDIT_15.BCKCOL = 16777215
0800CF70  F8DF 0250		ldr r0, [pc, #+592] ; 0xFFFFFF
0800CF74  F8DF 731C		ldr r7, [pc, #+796] ; 0x2000C9B0
0800CF78  6038     		str r0, [r7]

Var init: V:HMI:FBTOUCHSCREENEDIT_15.FORESELCOL = 16777215
0800CF7A  F8DF 0248		ldr r0, [pc, #+584] ; 0xFFFFFF
0800CF7E  F8DF 7318		ldr r7, [pc, #+792] ; 0x2000C9B4
0800CF82  6038     		str r0, [r7]

Var init: V:HMI:FBTOUCHSCREENEDIT_15.RW = 1
0800CF84  F8DF 01C4		ldr r0, [pc, #+452] ; 0x1
0800CF88  F8DF 7310		ldr r7, [pc, #+784] ; 0x2000C9C4
0800CF8C  7038     		strb r0, [r7]

Var init: V:HMI:FBTOUCHSCREENEDIT_15.REFR = 1
0800CF8E  F8DF 01BC		ldr r0, [pc, #+444] ; 0x1
0800CF92  F8DF 730C		ldr r7, [pc, #+780] ; 0x2000C9C5
0800CF96  7038     		strb r0, [r7]

Var init: V:HMI:FBTOUCHSCREENEDIT_15.PVAR = 2101504
0800CF98  F8DF 0220		ldr r0, [pc, #+544] ; 0x201100
0800CF9C  F8DF 7304		ldr r7, [pc, #+772] ; 0x2000C9C8
0800CFA0  6038     		str r0, [r7]

Var init: V:HMI:FBTOUCHSCREENEDIT_15.TYPE = 5
0800CFA2  F8DF 01B8		ldr r0, [pc, #+440] ; 0x5
0800CFA6  F8DF 7300		ldr r7, [pc, #+768] ; 0x2000C9CC
0800CFAA  7038     		strb r0, [r7]

Var init: V:HMI:FBTOUCHSCREENEDIT_15.FORMAT = 16777228
0800CFAC  F8DF 0218		ldr r0, [pc, #+536] ; 0x100000C
0800CFB0  F8DF 72F8		ldr r7, [pc, #+760] ; 0x2000C9D8
0800CFB4  6038     		str r0, [r7]

Var init: V:HMI:FBTOUCHSCREENEDIT_15.PVISVAR = 1
0800CFB6  F8DF 0194		ldr r0, [pc, #+404] ; 0x1
0800CFBA  F8DF 72F4		ldr r7, [pc, #+756] ; 0x2000C9DC
0800CFBE  6038     		str r0, [r7]

Var init: V:HMI:FBTOUCHSCREENEDIT_15.ORDER = 6
0800CFC0  F8DF 019C		ldr r0, [pc, #+412] ; 0x6
0800CFC4  F8DF 72EC		ldr r7, [pc, #+748] ; 0x2000C9E4
0800CFC8  7038     		strb r0, [r7]

Var init: V:HMI:FBTOUCHSCREENLINE_16.X1 = 8
0800CFCA  F8DF 019C		ldr r0, [pc, #+412] ; 0x8
0800CFCE  F8DF 72E8		ldr r7, [pc, #+744] ; 0x2000C9F4
0800CFD2  8038     		strh r0, [r7]

Var init: V:HMI:FBTOUCHSCREENLINE_16.Y1 = 85
0800CFD4  F8DF 01B4		ldr r0, [pc, #+436] ; 0x55
0800CFD8  F8DF 72E0		ldr r7, [pc, #+736] ; 0x2000C9F6
0800CFDC  8038     		strh r0, [r7]

Var init: V:HMI:FBTOUCHSCREENLINE_16.X2 = 231
0800CFDE  F8DF 01D4		ldr r0, [pc, #+468] ; 0xE7
0800CFE2  F8DF 72DC		ldr r7, [pc, #+732] ; 0x2000C9F8
0800CFE6  8038     		strh r0, [r7]

Var init: V:HMI:FBTOUCHSCREENLINE_16.Y2 = 85
0800CFE8  F8DF 01A0		ldr r0, [pc, #+416] ; 0x55
0800CFEC  F8DF 72D4		ldr r7, [pc, #+724] ; 0x2000C9FA
0800CFF0  8038     		strh r0, [r7]

Var init: V:HMI:FBTOUCHSCREENLINE_16.BORDPTS = 1
0800CFF2  F8DF 0158		ldr r0, [pc, #+344] ; 0x1
0800CFF6  F8DF 72D0		ldr r7, [pc, #+720] ; 0x2000C9FD
0800CFFA  7038     		strb r0, [r7]

Var init: V:HMI:FBTOUCHSCREENEDIT_18.WHND = 4
0800CFFC  F8DF 0158		ldr r0, [pc, #+344] ; 0x4
0800D000  F8DF 72C8		ldr r7, [pc, #+712] ; 0x2000CA14
0800D004  8038     		strh r0, [r7]

Var init: V:HMI:FBTOUCHSCREENEDIT_18.X1 = 33
0800D006  F8DF 0170		ldr r0, [pc, #+368] ; 0x21
0800D00A  F8DF 72C4		ldr r7, [pc, #+708] ; 0x2000CA16
0800D00E  8038     		strh r0, [r7]

Var init: V:HMI:FBTOUCHSCREENEDIT_18.Y1 = 107
0800D010  F8DF 017C		ldr r0, [pc, #+380] ; 0x6B
0800D014  F8DF 72BC		ldr r7, [pc, #+700] ; 0x2000CA18
0800D018  8038     		strh r0, [r7]

Var init: V:HMI:FBTOUCHSCREENEDIT_18.X2 = 200
0800D01A  F8DF 0188		ldr r0, [pc, #+392] ; 0xC8
0800D01E  F8DF 72B8		ldr r7, [pc, #+696] ; 0x2000CA1A
0800D022  8038     		strh r0, [r7]

Var init: V:HMI:FBTOUCHSCREENEDIT_18.Y2 = 130
0800D024  F8DF 016C		ldr r0, [pc, #+364] ; 0x82
0800D028  F8DF 72B0		ldr r7, [pc, #+688] ; 0x2000CA1C
0800D02C  8038     		strh r0, [r7]

Var init: V:HMI:FBTOUCHSCREENEDIT_18.PFONT = 
0800D02E  F8DF 72B0		ldr r7, [pc, #+688] ; 0x2000CA20
0800D032  F8DF 01A0		ldr r0, [pc, #+416] ; 0x8200008
0800D036  6038     		str r0, [r7]

Var init: V:HMI:FBTOUCHSCREENEDIT_18.BCKCOL = 16777215
0800D038  F8DF 0188		ldr r0, [pc, #+392] ; 0xFFFFFF
0800D03C  F8DF 72A4		ldr r7, [pc, #+676] ; 0x2000CA2C
0800D040  6038     		str r0, [r7]

Var init: V:HMI:FBTOUCHSCREENEDIT_18.FORESELCOL = 16777215
0800D042  F8DF 0180		ldr r0, [pc, #+384] ; 0xFFFFFF
0800D046  F8DF 72A0		ldr r7, [pc, #+672] ; 0x2000CA30
0800D04A  6038     		str r0, [r7]

Var init: V:HMI:FBTOUCHSCREENEDIT_18.RW = 1
0800D04C  F8DF 00FC		ldr r0, [pc, #+252] ; 0x1
0800D050  F8DF 7298		ldr r7, [pc, #+664] ; 0x2000CA40
0800D054  7038     		strb r0, [r7]

Var init: V:HMI:FBTOUCHSCREENEDIT_18.REFR = 1
0800D056  F8DF 00F4		ldr r0, [pc, #+244] ; 0x1
0800D05A  F8DF 7294		ldr r7, [pc, #+660] ; 0x2000CA41
0800D05E  7038     		strb r0, [r7]

Var init: V:HMI:FBTOUCHSCREENEDIT_18.PVAR = 2101760
0800D060  F8DF 015C		ldr r0, [pc, #+348] ; 0x201200
0800D064  F8DF 728C		ldr r7, [pc, #+652] ; 0x2000CA44
0800D068  6038     		str r0, [r7]

Var init: V:HMI:FBTOUCHSCREENEDIT_18.TYPE = 5
0800D06A  F8DF 00F0		ldr r0, [pc, #+240] ; 0x5
0800D06E  F8DF 7288		ldr r7, [pc, #+648] ; 0x2000CA48
0800D072  7038     		strb r0, [r7]

Var init: V:HMI:FBTOUCHSCREENEDIT_18.FORMAT = 20
0800D074  F8DF 00F4		ldr r0, [pc, #+244] ; 0x14
0800D078  F8DF 7280		ldr r7, [pc, #+640] ; 0x2000CA54
0800D07C  6038     		str r0, [r7]

Var init: V:HMI:FBTOUCHSCREENEDIT_18.PVISVAR = 1
0800D07E  F8DF 00CC		ldr r0, [pc, #+204] ; 0x1
0800D082  F8DF 727C		ldr r7, [pc, #+636] ; 0x2000CA58
0800D086  6038     		str r0, [r7]

Var init: V:HMI:FBTOUCHSCREENEDIT_18.ORDER = 7
0800D088  F8DF 00D8		ldr r0, [pc, #+216] ; 0x7
0800D08C  F8DF 7274		ldr r7, [pc, #+628] ; 0x2000CA60
0800D090  7038     		strb r0, [r7]

Var init: V:HMI:FBTOUCHSCREENEDIT_18.PENUMID = 1
0800D092  F8DF 00B8		ldr r0, [pc, #+184] ; 0x1
0800D096  F8DF 7270		ldr r7, [pc, #+624] ; 0x2000CA68
0800D09A  6038     		str r0, [r7]

Var init: V:HMI:FBTOUCHSCREENEDIT_19.WHND = 5
0800D09C  F8DF 00BC		ldr r0, [pc, #+188] ; 0x5
0800D0A0  F8DF 7268		ldr r7, [pc, #+616] ; 0x2000CA80
0800D0A4  8038     		strh r0, [r7]

Var init: V:HMI:FBTOUCHSCREENEDIT_19.X1 = 34
0800D0A6  F8DF 00D4		ldr r0, [pc, #+212] ; 0x22
0800D0AA  F8DF 7264		ldr r7, [pc, #+612] ; 0x2000CA82
0800D0AE  8038     		strh r0, [r7]

Var init: V:HMI:FBTOUCHSCREENEDIT_19.Y1 = 141
0800D0B0  F8DF 00E4		ldr r0, [pc, #+228] ; 0x8D
0800D0B4  F8DF 725C		ldr r7, [pc, #+604] ; 0x2000CA84
0800D0B8  8038     		strh r0, [r7]

Var init: V:HMI:FBTOUCHSCREENEDIT_19.X2 = 201
0800D0BA  F8DF 00EC		ldr r0, [pc, #+236] ; 0xC9
0800D0BE  F8DF 7258		ldr r7, [pc, #+600] ; 0x2000CA86
0800D0C2  8038     		strh r0, [r7]

Var init: V:HMI:FBTOUCHSCREENEDIT_19.Y2 = 164
0800D0C4  F8DF 00D4		ldr r0, [pc, #+212] ; 0xA4
0800D0C8  F8DF 7250		ldr r7, [pc, #+592] ; 0x2000CA88
0800D0CC  8038     		strh r0, [r7]

Var init: V:HMI:FBTOUCHSCREENEDIT_19.PFONT = 
0800D0CE  F8DF 7250		ldr r7, [pc, #+592] ; 0x2000CA8C
0800D0D2  F8DF 0100		ldr r0, [pc, #+256] ; 0x8200008
0800D0D6  6038     		str r0, [r7]

Var init: V:HMI:FBTOUCHSCREENEDIT_19.BCKCOL = 16777215
0800D0D8  F8DF 00E8		ldr r0, [pc, #+232] ; 0xFFFFFF
0800D0DC  F8DF 7244		ldr r7, [pc, #+580] ; 0x2000CA98
0800D0E0  6038     		str r0, [r7]

Var init: V:HMI:FBTOUCHSCREENEDIT_19.FORESELCOL = 16777215
0800D0E2  F8DF 00E0		ldr r0, [pc, #+224] ; 0xFFFFFF
0800D0E6  F8DF 7240		ldr r7, [pc, #+576] ; 0x2000CA9C
0800D0EA  6038     		str r0, [r7]

Var init: V:HMI:FBTOUCHSCREENEDIT_19.RW = 1
0800D0EC  F8DF 005C		ldr r0, [pc, #+92] ; 0x1
0800D0F0  F8DF 7238		ldr r7, [pc, #+568] ; 0x2000CAAC
0800D0F4  7038     		strb r0, [r7]

Var init: V:HMI:FBTOUCHSCREENEDIT_19.REFR = 1
0800D0F6  F8DF 0054		ldr r0, [pc, #+84] ; 0x1
0800D0FA  F8DF 7234		ldr r7, [pc, #+564] ; 0x2000CAAD
0800D0FE  7038     		strb r0, [r7]

Var init: V:HMI:FBTOUCHSCREENEDIT_19.PVAR = 2101760
0800D100  F8DF 00BC		ldr r0, [pc, #+188] ; 0x201200
0800D104  F8DF 722C		ldr r7, [pc, #+556] ; 0x2000CAB0
0800D108  6038     		str r0, [r7]

Var init: V:HMI:FBTOUCHSCREENEDIT_19.TYPE = 5
0800D10A  F8DF 0050		ldr r0, [pc, #+80] ; 0x5
0800D10E  F8DF 7228		ldr r7, [pc, #+552] ; 0x2000CAB4
0800D112  7038     		strb r0, [r7]

Var init: V:HMI:FBTOUCHSCREENEDIT_19.FORMAT = 20
0800D114  F8DF 0054		ldr r0, [pc, #+84] ; 0x14
0800D118  F8DF 7220		ldr r7, [pc, #+544] ; 0x2000CAC0
0800D11C  6038     		str r0, [r7]

Var init: V:HMI:FBTOUCHSCREENEDIT_19.PVISVAR = 1
0800D11E  F8DF 002C		ldr r0, [pc, #+44] ; 0x1
0800D122  F8DF 721C		ldr r7, [pc, #+540] ; 0x2000CAC4
0800D126  6038     		str r0, [r7]

Var init: V:HMI:FBTOUCHSCREENEDIT_19.ORDER = 8
0800D128  F8DF 003C		ldr r0, [pc, #+60] ; 0x8
0800D12C  F8DF 7214		ldr r7, [pc, #+532] ; 0x2000CACC
0800D130  7038     		strb r0, [r7]

Var init: V:HMI:FBTOUCHSCREENEDIT_19.PENUMID = 2
0800D132  F8DF 001C		ldr r0, [pc, #+28] ; 0x2
0800D136  F8DF 7210		ldr r7, [pc, #+528] ; 0x2000CAD4
0800D13A  6038     		str r0, [r7]

0800D13C  E8BD 0FF0		ldmia sp!, { r4, r5, r6, r7, r8, r9, r10, r11 }
0800D140  F8DD E000		ldr lr, [sp]
0800D144  B002     		add sp, sp, #8

0800D146  4770     		bx lr

0800D148  FFFFFFFF		; 0xFFFFFFFF
0800D14C  00000001		; 0x00000001
0800D150  00000002		; 0x00000002
0800D154  00000003		; 0x00000003
0800D158  00000004		; 0x00000004
0800D15C  00000005		; 0x00000005
0800D160  00000006		; 0x00000006
0800D164  00000007		; 0x00000007
0800D168  00000008		; 0x00000008
0800D16C  00000014		; 0x00000014
0800D170  0000001F		; 0x0000001F
0800D174  00000020		; 0x00000020
0800D178  00000021		; 0x00000021
0800D17C  00000022		; 0x00000022
0800D180  00000028		; 0x00000028
0800D184  00000033		; 0x00000033
0800D188  0000004A		; 0x0000004A
0800D18C  00000055		; 0x00000055
0800D190  0000006B		; 0x0000006B
0800D194  00000082		; 0x00000082
0800D198  0000008D		; 0x0000008D
0800D19C  000000A4		; 0x000000A4
0800D1A0  000000AE		; 0x000000AE
0800D1A4  000000C8		; 0x000000C8
0800D1A8  000000C9		; 0x000000C9
0800D1AC  000000DD		; 0x000000DD
0800D1B0  000000E6		; 0x000000E6
0800D1B4  000000E7		; 0x000000E7
0800D1B8  00201000		; 0x00201000
0800D1BC  00201100		; 0x00201100
0800D1C0  00201200		; 0x00201200
0800D1C4  00FFFFFF		; 0x00FFFFFF
0800D1C8  0100000C		; 0x0100000C
0800D1CC  08008128		; 0x08008128
0800D1D0  08008138		; 0x08008138
0800D1D4  08200008		; 0x08200008
0800D1D8  2000C814		; 0x2000C814
0800D1DC  2000C816		; 0x2000C816
0800D1E0  2000C818		; 0x2000C818
0800D1E4  2000C81A		; 0x2000C81A
0800D1E8  2000C89C		; 0x2000C89C
0800D1EC  2000C89E		; 0x2000C89E
0800D1F0  2000C8A0		; 0x2000C8A0
0800D1F4  2000C8A2		; 0x2000C8A2
0800D1F8  2000C8A4		; 0x2000C8A4
0800D1FC  2000C8A8		; 0x2000C8A8
0800D200  2000C8B4		; 0x2000C8B4
0800D204  2000C8B8		; 0x2000C8B8
0800D208  2000C8C8		; 0x2000C8C8
0800D20C  2000C8C9		; 0x2000C8C9
0800D210  2000C8CC		; 0x2000C8CC
0800D214  2000C8D0		; 0x2000C8D0
0800D218  2000C8DC		; 0x2000C8DC
0800D21C  2000C8E0		; 0x2000C8E0
0800D220  2000C8E8		; 0x2000C8E8
0800D224  2000C902		; 0x2000C902
0800D228  2000C904		; 0x2000C904
0800D22C  2000C908		; 0x2000C908
0800D230  2000C90C		; 0x2000C90C
0800D234  2000C914		; 0x2000C914
0800D238  2000C918		; 0x2000C918
0800D23C  2000C91C		; 0x2000C91C
0800D240  2000C928		; 0x2000C928
0800D244  2000C938		; 0x2000C938
0800D248  2000C93A		; 0x2000C93A
0800D24C  2000C93C		; 0x2000C93C
0800D250  2000C93E		; 0x2000C93E
0800D254  2000C941		; 0x2000C941
0800D258  2000C950		; 0x2000C950
0800D25C  2000C952		; 0x2000C952
0800D260  2000C954		; 0x2000C954
0800D264  2000C958		; 0x2000C958
0800D268  2000C95C		; 0x2000C95C
0800D26C  2000C964		; 0x2000C964
0800D270  2000C968		; 0x2000C968
0800D274  2000C96C		; 0x2000C96C
0800D278  2000C978		; 0x2000C978
0800D27C  2000C998		; 0x2000C998
0800D280  2000C99A		; 0x2000C99A
0800D284  2000C99C		; 0x2000C99C
0800D288  2000C99E		; 0x2000C99E
0800D28C  2000C9A0		; 0x2000C9A0
0800D290  2000C9A4		; 0x2000C9A4
0800D294  2000C9B0		; 0x2000C9B0
0800D298  2000C9B4		; 0x2000C9B4
0800D29C  2000C9C4		; 0x2000C9C4
0800D2A0  2000C9C5		; 0x2000C9C5
0800D2A4  2000C9C8		; 0x2000C9C8
0800D2A8  2000C9CC		; 0x2000C9CC
0800D2AC  2000C9D8		; 0x2000C9D8
0800D2B0  2000C9DC		; 0x2000C9DC
0800D2B4  2000C9E4		; 0x2000C9E4
0800D2B8  2000C9F4		; 0x2000C9F4
0800D2BC  2000C9F6		; 0x2000C9F6
0800D2C0  2000C9F8		; 0x2000C9F8
0800D2C4  2000C9FA		; 0x2000C9FA
0800D2C8  2000C9FD		; 0x2000C9FD
0800D2CC  2000CA14		; 0x2000CA14
0800D2D0  2000CA16		; 0x2000CA16
0800D2D4  2000CA18		; 0x2000CA18
0800D2D8  2000CA1A		; 0x2000CA1A
0800D2DC  2000CA1C		; 0x2000CA1C
0800D2E0  2000CA20		; 0x2000CA20
0800D2E4  2000CA2C		; 0x2000CA2C
0800D2E8  2000CA30		; 0x2000CA30
0800D2EC  2000CA40		; 0x2000CA40
0800D2F0  2000CA41		; 0x2000CA41
0800D2F4  2000CA44		; 0x2000CA44
0800D2F8  2000CA48		; 0x2000CA48
0800D2FC  2000CA54		; 0x2000CA54
0800D300  2000CA58		; 0x2000CA58
0800D304  2000CA60		; 0x2000CA60
0800D308  2000CA68		; 0x2000CA68
0800D30C  2000CA80		; 0x2000CA80
0800D310  2000CA82		; 0x2000CA82
0800D314  2000CA84		; 0x2000CA84
0800D318  2000CA86		; 0x2000CA86
0800D31C  2000CA88		; 0x2000CA88
0800D320  2000CA8C		; 0x2000CA8C
0800D324  2000CA98		; 0x2000CA98
0800D328  2000CA9C		; 0x2000CA9C
0800D32C  2000CAAC		; 0x2000CAAC
0800D330  2000CAAD		; 0x2000CAAD
0800D334  2000CAB0		; 0x2000CAB0
0800D338  2000CAB4		; 0x2000CAB4
0800D33C  2000CAC0		; 0x2000CAC0
0800D340  2000CAC4		; 0x2000CAC4
0800D344  2000CACC		; 0x2000CACC
0800D348  2000CAD4		; 0x2000CAD4



********************************************
MEMORY MAP
********************************************

Code area type:          		       main code
Start code area:          		0000000008008000h
End code area:            		000000000800D350h
Code size:                		00005350h

Code area type:          		       auxiliary
Start code area:          		0000000008200000h
End code area:            		0000000008200FA4h
Code size:                		00000FA4h

Start local data area:    		000000002000C800h
End local data area:      		000000002000CAF0h
Local data size:          		000002F0h

Start retentive data area:		0000000000000000h
End retentive data area:  		0000000000000000h
Retentive data size:      		00000000h

Start bit data area:      		0000000000000000h
End bit data area:        		0000000000000000h
Bit data size:            		00000000h



********************************************
CODE ID:                                B362638B
DEBUG MEMO ID:                          00002EF2
FULL MEMO ID:                           00008D22
********************************************
